///////////////////////////////////////////////////////////////////////////////
//                                                                            /
// IAR C/C++ Compiler V7.51A/W32 for 8051               13/Aug/2011  15:03:36 /
// Copyright 2004-2009 IAR Systems AB.                                        /
//                                                                            /
//    Core               =  plain                                             /
//    Code model         =  banked                                            /
//    Data model         =  large                                             /
//    Calling convention =  xdata reentrant                                   /
//    Constant location  =  data_rom                                          /
//    Dptr setup         =  1,16                                              /
//    Source file        =  C:\Documents and Settings\Administrator\桌面\ZSta /
//                          ck-CC2530-2.3.1-1.4.0\Projects\zstack\Samples\Sam /
//                          pleApp\Source\SampleApp.c                         /
//    Command line       =  -f "C:\Documents and Settings\Administrator\桌面\ /
//                          ZStack-CC2530-2.3.1-1.4.0\Projects\zstack\Samples /
//                          \SampleApp\CC2530DB\..\..\..\Tools\CC2530DB\f8wRo /
//                          uter.cfg" (-DCPU32MHZ -DROOT=__near_func          /
//                          -DMAC_CFG_APP_PENDING_QUEUE=TRUE                  /
//                          -DMAC_CFG_TX_DATA_MAX=5 -DMAC_CFG_TX_MAX=8        /
//                          -DMAC_CFG_RX_MAX=5 -DRTR_NWK) -f "C:\Documents    /
//                          and Settings\Administrator\桌面\ZStack-CC2530-2.3 /
//                          .1-1.4.0\Projects\zstack\Samples\SampleApp\CC2530 /
//                          DB\..\..\..\Tools\CC2530DB\f8wConfig.cfg"         /
//                          (-DSECURE=0 -DZG_SECURE_DYNAMIC=0 -DREFLECTOR     /
//                          -DDEFAULT_CHANLIST=0x00000800                     /
//                          -DZDAPP_CONFIG_PAN_ID=0x11FF                      /
//                          -DNWK_START_DELAY=100 -DEXTENDED_JOINING_RANDOM_M /
//                          ASK=0x007F -DBEACON_REQUEST_DELAY=100             /
//                          -DBEACON_REQ_DELAY_MASK=0x00FF                    /
//                          -DLINK_STATUS_JITTER_MASK=0x007F                  /
//                          -DROUTE_EXPIRY_TIME=30 -DAPSC_ACK_WAIT_DURATION_P /
//                          OLLED=3000 -DNWK_INDIRECT_MSG_TIMEOUT=7           /
//                          -DMAX_RREQ_ENTRIES=8 -DAPSC_MAX_FRAME_RETRIES=3   /
//                          -DNWK_MAX_DATA_RETRIES=2                          /
//                          -DMAX_POLL_FAILURE_RETRIES=2 -DMAX_BCAST=9        /
//                          -DAPS_MAX_GROUPS=16 -DMAX_RTG_ENTRIES=40          /
//                          -DNWK_MAX_BINDING_ENTRIES=4                       /
//                          -DMAX_BINDING_CLUSTER_IDS=4                       /
//                          "-DDEFAULT_KEY={0x01, 0x03, 0x05, 0x07, 0x09,     /
//                          0x0B, 0x0D, 0x0F, 0x00, 0x02, 0x04, 0x06, 0x08,   /
//                          0x0A, 0x0C, 0x0D}" -DMAC_MAX_FRAME_SIZE=116       /
//                          -DZDNWKMGR_MIN_TRANSMISSIONS=20 "-DCONST=const    /
//                          __code" -DGENERIC=__generic                       /
//                          -DRFD_RCVC_ALWAYS_ON=FALSE -DPOLL_RATE=1000       /
//                          -DQUEUED_POLL_RATE=100 -DRESPONSE_POLL_RATE=100)  /
//                          -DREJOIN_POLL_RATE=440 "C:\Documents and          /
//                          Settings\Administrator\桌面\ZStack-CC2530-2.3.1-1 /
//                          .4.0\Projects\zstack\Samples\SampleApp\Source\Sam /
//                          pleApp.c" -D ZTOOL_P1 -D MT_TASK -D xMT_SYS_FUNC  /
//                          -D xMT_ZDO_FUNC -D HAL_UART=TRUE -D               /
//                          SERIAL_APP_PORT=0 -D BUILD_ALL_DEVICES -D         /
//                          xLCD_SUPPORTED=DEBUG -D NWK_AUTO_POLL -D          /
//                          SOFT_SATRT -D ZDO_COORDINATOR -lC "C:\Documents   /
//                          and Settings\Administrator\桌面\ZStack-CC2530-2.3 /
//                          .1-1.4.0\Projects\zstack\Samples\SampleApp\CC2530 /
//                          DB\RouterEB\List\" -lA "C:\Documents and          /
//                          Settings\Administrator\桌面\ZStack-CC2530-2.3.1-1 /
//                          .4.0\Projects\zstack\Samples\SampleApp\CC2530DB\R /
//                          outerEB\List\" --diag_suppress Pe001,Pa010 -o     /
//                          "C:\Documents and Settings\Administrator\桌面\ZSt /
//                          ack-CC2530-2.3.1-1.4.0\Projects\zstack\Samples\Sa /
//                          mpleApp\CC2530DB\RouterEB\Obj\" -e                /
//                          --require_prototypes --debug --core=plain         /
//                          --dptr=16,1 --data_model=large                    /
//                          --code_model=banked --calling_convention=xdata_re /
//                          entrant --place_constants=data_rom                /
//                          --nr_virtual_regs 16 -I "C:\Documents and         /
//                          Settings\Administrator\桌面\ZStack-CC2530-2.3.1-1 /
//                          .4.0\Projects\zstack\Samples\SampleApp\CC2530DB\" /
//                           -I "C:\Documents and Settings\Administrator\桌面 /
//                          \ZStack-CC2530-2.3.1-1.4.0\Projects\zstack\Sample /
//                          s\SampleApp\CC2530DB\..\SOURCE\" -I               /
//                          "C:\Documents and Settings\Administrator\桌面\ZSt /
//                          ack-CC2530-2.3.1-1.4.0\Projects\zstack\Samples\Sa /
//                          mpleApp\CC2530DB\..\..\..\ZMAIN\TI2530DB\" -I     /
//                          "C:\Documents and Settings\Administrator\桌面\ZSt /
//                          ack-CC2530-2.3.1-1.4.0\Projects\zstack\Samples\Sa /
//                          mpleApp\CC2530DB\..\..\..\..\..\COMPONENTS\MT\"   /
//                          -I "C:\Documents and Settings\Administrator\桌面\ /
//                          ZStack-CC2530-2.3.1-1.4.0\Projects\zstack\Samples /
//                          \SampleApp\CC2530DB\..\..\..\..\..\COMPONENTS\HAL /
//                          \INCLUDE\" -I "C:\Documents and                   /
//                          Settings\Administrator\桌面\ZStack-CC2530-2.3.1-1 /
//                          .4.0\Projects\zstack\Samples\SampleApp\CC2530DB\. /
//                          .\..\..\..\..\COMPONENTS\HAL\TARGET\CC2530EB\"    /
//                          -I "C:\Documents and Settings\Administrator\桌面\ /
//                          ZStack-CC2530-2.3.1-1.4.0\Projects\zstack\Samples /
//                          \SampleApp\CC2530DB\..\..\..\..\..\COMPONENTS\OSA /
//                          L\MCU\CCSOC\" -I "C:\Documents and                /
//                          Settings\Administrator\桌面\ZStack-CC2530-2.3.1-1 /
//                          .4.0\Projects\zstack\Samples\SampleApp\CC2530DB\. /
//                          .\..\..\..\..\COMPONENTS\OSAL\INCLUDE\" -I        /
//                          "C:\Documents and Settings\Administrator\桌面\ZSt /
//                          ack-CC2530-2.3.1-1.4.0\Projects\zstack\Samples\Sa /
//                          mpleApp\CC2530DB\..\..\..\..\..\COMPONENTS\STACK\ /
//                          AF\" -I "C:\Documents and                         /
//                          Settings\Administrator\桌面\ZStack-CC2530-2.3.1-1 /
//                          .4.0\Projects\zstack\Samples\SampleApp\CC2530DB\. /
//                          .\..\..\..\..\COMPONENTS\STACK\NWK\" -I           /
//                          "C:\Documents and Settings\Administrator\桌面\ZSt /
//                          ack-CC2530-2.3.1-1.4.0\Projects\zstack\Samples\Sa /
//                          mpleApp\CC2530DB\..\..\..\..\..\COMPONENTS\STACK\ /
//                          SEC\" -I "C:\Documents and                        /
//                          Settings\Administrator\桌面\ZStack-CC2530-2.3.1-1 /
//                          .4.0\Projects\zstack\Samples\SampleApp\CC2530DB\. /
//                          .\..\..\..\..\COMPONENTS\STACK\SAPI\" -I          /
//                          "C:\Documents and Settings\Administrator\桌面\ZSt /
//                          ack-CC2530-2.3.1-1.4.0\Projects\zstack\Samples\Sa /
//                          mpleApp\CC2530DB\..\..\..\..\..\COMPONENTS\STACK\ /
//                          SYS\" -I "C:\Documents and                        /
//                          Settings\Administrator\桌面\ZStack-CC2530-2.3.1-1 /
//                          .4.0\Projects\zstack\Samples\SampleApp\CC2530DB\. /
//                          .\..\..\..\..\COMPONENTS\STACK\ZDO\" -I           /
//                          "C:\Documents and Settings\Administrator\桌面\ZSt /
//                          ack-CC2530-2.3.1-1.4.0\Projects\zstack\Samples\Sa /
//                          mpleApp\CC2530DB\..\..\..\..\..\COMPONENTS\ZMAC\F /
//                          8W\" -I "C:\Documents and                         /
//                          Settings\Administrator\桌面\ZStack-CC2530-2.3.1-1 /
//                          .4.0\Projects\zstack\Samples\SampleApp\CC2530DB\. /
//                          .\..\..\..\..\COMPONENTS\ZMAC\" -I "C:\Documents  /
//                          and Settings\Administrator\桌面\ZStack-CC2530-2.3 /
//                          .1-1.4.0\Projects\zstack\Samples\SampleApp\CC2530 /
//                          DB\..\..\..\..\..\COMPONENTS\SERVICES\SADDR\" -I  /
//                          "C:\Documents and Settings\Administrator\桌面\ZSt /
//                          ack-CC2530-2.3.1-1.4.0\Projects\zstack\Samples\Sa /
//                          mpleApp\CC2530DB\..\..\..\..\..\COMPONENTS\SERVIC /
//                          ES\SDATA\" -I "C:\Documents and                   /
//                          Settings\Administrator\桌面\ZStack-CC2530-2.3.1-1 /
//                          .4.0\Projects\zstack\Samples\SampleApp\CC2530DB\. /
//                          .\..\..\..\..\COMPONENTS\MAC\INCLUDE\" -I         /
//                          "C:\Documents and Settings\Administrator\桌面\ZSt /
//                          ack-CC2530-2.3.1-1.4.0\Projects\zstack\Samples\Sa /
//                          mpleApp\CC2530DB\..\..\..\..\..\COMPONENTS\MAC\HI /
//                          GH_LEVEL\" -I "C:\Documents and                   /
//                          Settings\Administrator\桌面\ZStack-CC2530-2.3.1-1 /
//                          .4.0\Projects\zstack\Samples\SampleApp\CC2530DB\. /
//                          .\..\..\..\..\COMPONENTS\MAC\LOW_LEVEL\srf04\"    /
//                          -I "C:\Documents and Settings\Administrator\桌面\ /
//                          ZStack-CC2530-2.3.1-1.4.0\Projects\zstack\Samples /
//                          \SampleApp\CC2530DB\..\..\..\..\..\COMPONENTS\MAC /
//                          \LOW_LEVEL\srf04\SINGLE_CHIP\" -I                 /
//                          D:\Zigbee\IAR\8051\INC\ -I                        /
//                          D:\Zigbee\IAR\8051\INC\CLIB\ -Ohz                 /
//    List file          =  C:\Documents and Settings\Administrator\桌面\ZSta /
//                          ck-CC2530-2.3.1-1.4.0\Projects\zstack\Samples\Sam /
//                          pleApp\CC2530DB\RouterEB\List\SampleApp.s51       /
//                                                                            /
//                                                                            /
///////////////////////////////////////////////////////////////////////////////

        NAME SampleApp

        RTMODEL "__calling_convention", "xdata_reentrant"
        RTMODEL "__code_model", "banked"
        RTMODEL "__core", "plain"
        RTMODEL "__data_model", "large"
        RTMODEL "__dptr_size", "16"
        RTMODEL "__extended_stack", "disabled"
        RTMODEL "__location_for_constants", "data"
        RTMODEL "__number_of_dptrs", "1"
        RTMODEL "__rt_version", "1"

        RSEG DOVERLAY:DATA:NOROOT(0)
        RSEG IOVERLAY:IDATA:NOROOT(0)
        RSEG ISTACK:IDATA:NOROOT(0)
        RSEG PSTACK:XDATA:NOROOT(0)
        RSEG XSTACK:XDATA:NOROOT(0)

        EXTERN ??CheckToSetTest?relay
        EXTERN ??CompForVdd?relay
        EXTERN ??CompforID?relay
        EXTERN ??CompforTESTID?relay
        EXTERN ??CompforTEST_BATTERY?relay
        EXTERN ??CompforTestID?relay
        EXTERN ??IDISUSE?relay
        EXTERN ??ID_Set?relay
        EXTERN ??Init_IDandTest?relay
        EXTERN ??ReadID?relay
        EXTERN ??ReadPanidbuf?relay
        EXTERN ??Read_Battery?relay
        EXTERN ??SampleApp_Broadcast_ForTest?relay
        EXTERN ??SampleApp_Broadcast_TEST_BATTERY?relay
        EXTERN ??SampleApp_Broadcast_TEST_ID?relay
        EXTERN ??SampleApp_Broadcast_Vdd?relay
        EXTERN ??SampleApp_HandleKeys?relay
        EXTERN ??SampleApp_MessageMSGCB?relay
        EXTERN ??SampleApp_SPI?relay
        EXTERN ??SampleApp_SPI_SendData?relay
        EXTERN ??SampleApp_SendFlashMessage?relay
        EXTERN ??SampleApp_SendTestMessage?relay
        EXTERN ??SampleApp_Send_TestBATTERY_Message?relay
        EXTERN ??SampleApp_Send_TestID_Message?relay
        EXTERN ??SampleApp_Send_VDD_Message?relay
        EXTERN ??SampleApp_UART_EVT?relay
        EXTERN ??Set_Panid?relay
        EXTERN ??Set_Test?relay
        EXTERN ??Set_id?relay
        EXTERN ??comparebuf?relay
        EXTERN ??hextoword1?relay
        EXTERN ??hextoword2?relay
        EXTERN ??myApp_ReadBattery?relay
        EXTERN ?ALLOC_XSTACK8
        EXTERN ?BANKED_ENTER_XDATA
        EXTERN ?BANKED_LEAVE_XDATA
        EXTERN ?BDISPATCH
        EXTERN ?BRET
        EXTERN ?DEALLOC_XSTACK8
        EXTERN ?FLT_MUL
        EXTERN ?FLT_TO_L
        EXTERN ?L_MOV_X
        EXTERN ?MOVE_LONG8_XDATA_XDATA
        EXTERN ?PUSH_XSTACK_I_ONE
        EXTERN ?PUSH_XSTACK_I_THREE
        EXTERN ?PUSH_XSTACK_I_TWO
        EXTERN ?S_SHL
        EXTERN ?UC_SWITCH_SPARSE
        EXTERN ?UL_TO_FLT
        EXTERN ?US_SHR
        EXTERN ?US_SWITCH_DENSE
        EXTERN ?V0
        EXTERN ?XSP
        EXTERN ?XSTACK_DISP0_8
        EXTERN __INIT_XDATA_Z

        PUBLIC ??CheckToSetTest?relay
        FUNCTION ??CheckToSetTest?relay,0203H
        PUBLIC ??CompForVdd?relay
        FUNCTION ??CompForVdd?relay,0203H
        PUBLIC ??CompforID?relay
        FUNCTION ??CompforID?relay,0203H
        PUBLIC ??CompforTESTID?relay
        FUNCTION ??CompforTESTID?relay,0203H
        PUBLIC ??CompforTEST_BATTERY?relay
        FUNCTION ??CompforTEST_BATTERY?relay,0203H
        PUBLIC ??CompforTestID?relay
        FUNCTION ??CompforTestID?relay,0203H
        PUBLIC ??IDISUSE?relay
        FUNCTION ??IDISUSE?relay,0203H
        PUBLIC ??ID_Set?relay
        FUNCTION ??ID_Set?relay,0203H
        PUBLIC ??Init_IDandTest?relay
        FUNCTION ??Init_IDandTest?relay,0203H
        PUBLIC ??ReadID?relay
        FUNCTION ??ReadID?relay,0203H
        PUBLIC ??ReadPanidbuf?relay
        FUNCTION ??ReadPanidbuf?relay,0203H
        PUBLIC ??Read_Battery?relay
        FUNCTION ??Read_Battery?relay,0203H
        PUBLIC ??SampleApp_Broadcast_ForTest?relay
        FUNCTION ??SampleApp_Broadcast_ForTest?relay,0203H
        PUBLIC ??SampleApp_Broadcast_TEST_BATTERY?relay
        FUNCTION ??SampleApp_Broadcast_TEST_BATTERY?relay,0203H
        PUBLIC ??SampleApp_Broadcast_TEST_ID?relay
        FUNCTION ??SampleApp_Broadcast_TEST_ID?relay,0203H
        PUBLIC ??SampleApp_Broadcast_Vdd?relay
        FUNCTION ??SampleApp_Broadcast_Vdd?relay,0203H
        PUBLIC ??SampleApp_HandleKeys?relay
        FUNCTION ??SampleApp_HandleKeys?relay,0203H
        PUBLIC ??SampleApp_Init?relay
        FUNCTION ??SampleApp_Init?relay,0203H
        PUBLIC ??SampleApp_MessageMSGCB?relay
        FUNCTION ??SampleApp_MessageMSGCB?relay,0203H
        PUBLIC ??SampleApp_ProcessEvent?relay
        FUNCTION ??SampleApp_ProcessEvent?relay,0203H
        PUBLIC ??SampleApp_SPI?relay
        FUNCTION ??SampleApp_SPI?relay,0203H
        PUBLIC ??SampleApp_SPI_SendData?relay
        FUNCTION ??SampleApp_SPI_SendData?relay,0203H
        PUBLIC ??SampleApp_SendFlashMessage?relay
        FUNCTION ??SampleApp_SendFlashMessage?relay,0203H
        PUBLIC ??SampleApp_SendPeriodicMessage?relay
        FUNCTION ??SampleApp_SendPeriodicMessage?relay,0203H
        PUBLIC ??SampleApp_SendTestMessage?relay
        FUNCTION ??SampleApp_SendTestMessage?relay,0203H
        PUBLIC ??SampleApp_Send_TestBATTERY_Message?relay
        FUNCTION ??SampleApp_Send_TestBATTERY_Message?relay,0203H
        PUBLIC ??SampleApp_Send_TestID_Message?relay
        FUNCTION ??SampleApp_Send_TestID_Message?relay,0203H
        PUBLIC ??SampleApp_Send_VDD_Message?relay
        FUNCTION ??SampleApp_Send_VDD_Message?relay,0203H
        PUBLIC ??SampleApp_UART_EVT?relay
        FUNCTION ??SampleApp_UART_EVT?relay,0203H
        PUBLIC ??Set_Panid?relay
        FUNCTION ??Set_Panid?relay,0203H
        PUBLIC ??Set_Test?relay
        FUNCTION ??Set_Test?relay,0203H
        PUBLIC ??Set_id?relay
        FUNCTION ??Set_id?relay,0203H
        PUBLIC ??comparebuf?relay
        FUNCTION ??comparebuf?relay,0203H
        PUBLIC ??hextoword1?relay
        FUNCTION ??hextoword1?relay,0203H
        PUBLIC ??hextoword2?relay
        FUNCTION ??hextoword2?relay,0203H
        PUBLIC ??myApp_ReadBattery?relay
        FUNCTION ??myApp_ReadBattery?relay,0203H
        PUBWEAK ADCCON3
        PUBWEAK ADCH
        PUBWEAK ADCL
        PUBLIC CheckToSetTest
        FUNCTION CheckToSetTest,021203H
        ARGFRAME XSTACK, 0, STACK
        ARGFRAME IOVERLAY, 0, STATIC
        ARGFRAME DOVERLAY, 0, STATIC
        LOCFRAME ISTACK, 2, STACK
        LOCFRAME XSTACK, 44, STACK
        PUBLIC CompForVdd
        FUNCTION CompForVdd,021203H
        ARGFRAME XSTACK, 0, STACK
        ARGFRAME IOVERLAY, 0, STATIC
        ARGFRAME DOVERLAY, 0, STATIC
        LOCFRAME ISTACK, 2, STACK
        LOCFRAME XSTACK, 18, STACK
        PUBLIC CompforID
        FUNCTION CompforID,021203H
        ARGFRAME XSTACK, 0, STACK
        ARGFRAME IOVERLAY, 0, STATIC
        ARGFRAME DOVERLAY, 0, STATIC
        LOCFRAME ISTACK, 2, STACK
        LOCFRAME XSTACK, 20, STACK
        PUBLIC CompforTESTID
        FUNCTION CompforTESTID,021203H
        ARGFRAME XSTACK, 0, STACK
        ARGFRAME IOVERLAY, 0, STATIC
        ARGFRAME DOVERLAY, 0, STATIC
        LOCFRAME ISTACK, 2, STACK
        LOCFRAME XSTACK, 19, STACK
        PUBLIC CompforTEST_BATTERY
        FUNCTION CompforTEST_BATTERY,021203H
        ARGFRAME XSTACK, 0, STACK
        ARGFRAME IOVERLAY, 0, STATIC
        ARGFRAME DOVERLAY, 0, STATIC
        LOCFRAME ISTACK, 2, STACK
        LOCFRAME XSTACK, 19, STACK
        PUBLIC CompforTestID
        FUNCTION CompforTestID,021203H
        ARGFRAME XSTACK, 0, STACK
        ARGFRAME IOVERLAY, 0, STATIC
        ARGFRAME DOVERLAY, 0, STATIC
        LOCFRAME ISTACK, 2, STACK
        LOCFRAME XSTACK, 18, STACK
        PUBLIC IDISUSE
        FUNCTION IDISUSE,021203H
        ARGFRAME XSTACK, 0, STACK
        ARGFRAME IOVERLAY, 0, STATIC
        ARGFRAME DOVERLAY, 0, STATIC
        LOCFRAME ISTACK, 2, STACK
        LOCFRAME XSTACK, 43, STACK
        PUBLIC ID_Set
        FUNCTION ID_Set,021203H
        ARGFRAME XSTACK, 43, STACK
        ARGFRAME IOVERLAY, 0, STATIC
        ARGFRAME DOVERLAY, 0, STATIC
        LOCFRAME ISTACK, 1, STACK
        LOCFRAME XSTACK, 15, STACK
        PUBLIC Init_IDandTest
        FUNCTION Init_IDandTest,021203H
        ARGFRAME XSTACK, 11, STACK
        ARGFRAME IOVERLAY, 0, STATIC
        ARGFRAME DOVERLAY, 0, STATIC
        LOCFRAME ISTACK, 1, STACK
        LOCFRAME XSTACK, 16, STACK
        PUBLIC ReadID
        FUNCTION ReadID,021203H
        ARGFRAME XSTACK, 0, STACK
        ARGFRAME IOVERLAY, 0, STATIC
        ARGFRAME DOVERLAY, 0, STATIC
        LOCFRAME ISTACK, 2, STACK
        LOCFRAME XSTACK, 15, STACK
        PUBLIC ReadPanidbuf
        FUNCTION ReadPanidbuf,021203H
        ARGFRAME XSTACK, 0, STACK
        ARGFRAME IOVERLAY, 0, STATIC
        ARGFRAME DOVERLAY, 0, STATIC
        LOCFRAME ISTACK, 2, STACK
        LOCFRAME XSTACK, 31, STACK
        PUBLIC Read_Battery
        FUNCTION Read_Battery,021203H
        ARGFRAME XSTACK, 12, STACK
        ARGFRAME IOVERLAY, 0, STATIC
        ARGFRAME DOVERLAY, 0, STATIC
        LOCFRAME ISTACK, 4, STACK
        LOCFRAME XSTACK, 15, STACK
        PUBLIC SampleAppFlashCounter
        PUBLIC SampleAppPeriodicCounter
        PUBLIC SampleApp_Broadcast_ForTest
        FUNCTION SampleApp_Broadcast_ForTest,021203H
        ARGFRAME XSTACK, 18, STACK
        ARGFRAME IOVERLAY, 0, STATIC
        ARGFRAME DOVERLAY, 0, STATIC
        LOCFRAME XSTACK, 20, STACK
        PUBLIC SampleApp_Broadcast_TEST_BATTERY
        FUNCTION SampleApp_Broadcast_TEST_BATTERY,021203H
        ARGFRAME XSTACK, 19, STACK
        ARGFRAME IOVERLAY, 0, STATIC
        ARGFRAME DOVERLAY, 0, STATIC
        LOCFRAME ISTACK, 1, STACK
        LOCFRAME XSTACK, 21, STACK
        PUBLIC SampleApp_Broadcast_TEST_ID
        FUNCTION SampleApp_Broadcast_TEST_ID,021203H
        ARGFRAME XSTACK, 19, STACK
        ARGFRAME IOVERLAY, 0, STATIC
        ARGFRAME DOVERLAY, 0, STATIC
        LOCFRAME ISTACK, 1, STACK
        LOCFRAME XSTACK, 21, STACK
        PUBLIC SampleApp_Broadcast_Vdd
        FUNCTION SampleApp_Broadcast_Vdd,021203H
        ARGFRAME XSTACK, 18, STACK
        ARGFRAME IOVERLAY, 0, STATIC
        ARGFRAME DOVERLAY, 0, STATIC
        LOCFRAME XSTACK, 20, STACK
        PUBLIC SampleApp_ClusterList
        PUBLIC SampleApp_Flash_DstAddr
        PUBLIC SampleApp_Group
        PUBLIC SampleApp_HandleKeys
        FUNCTION SampleApp_HandleKeys,021203H
        ARGFRAME XSTACK, 12, STACK
        ARGFRAME IOVERLAY, 0, STATIC
        ARGFRAME DOVERLAY, 0, STATIC
        LOCFRAME XSTACK, 10, STACK
        PUBLIC SampleApp_Init
        FUNCTION SampleApp_Init,021203H
        ARGFRAME XSTACK, 0, STACK
        LOCFRAME XSTACK, 14, STACK
        PUBLIC SampleApp_MessageMSGCB
        FUNCTION SampleApp_MessageMSGCB,0a1203H
        ARGFRAME XSTACK, 12, STACK
        ARGFRAME IOVERLAY, 0, STATIC
        ARGFRAME DOVERLAY, 0, STATIC
        LOCFRAME ISTACK, 1, STACK
        LOCFRAME XSTACK, 21, STACK
        PUBLIC SampleApp_NwkState
        PUBLIC SampleApp_Periodic_DstAddr
        PUBLIC SampleApp_ProcessEvent
        FUNCTION SampleApp_ProcessEvent,0a1203H
        ARGFRAME XSTACK, 0, STACK
        LOCFRAME XSTACK, 12, STACK
        PUBLIC SampleApp_SPI
        FUNCTION SampleApp_SPI,021203H
        ARGFRAME XSTACK, 12, STACK
        ARGFRAME IOVERLAY, 0, STATIC
        ARGFRAME DOVERLAY, 0, STATIC
        LOCFRAME ISTACK, 2, STACK
        LOCFRAME XSTACK, 38, STACK
        PUBLIC SampleApp_SPI_SendData
        FUNCTION SampleApp_SPI_SendData,021203H
        ARGFRAME XSTACK, 0, STACK
        ARGFRAME IOVERLAY, 0, STATIC
        ARGFRAME DOVERLAY, 0, STATIC
        LOCFRAME XSTACK, 19, STACK
        PUBLIC SampleApp_SPI_SendData_DstAddr
        PUBLIC SampleApp_SendFlashMessage
        FUNCTION SampleApp_SendFlashMessage,021203H
        ARGFRAME XSTACK, 10, STACK
        ARGFRAME IOVERLAY, 0, STATIC
        ARGFRAME DOVERLAY, 0, STATIC
        LOCFRAME ISTACK, 1, STACK
        LOCFRAME XSTACK, 22, STACK
        PUBLIC SampleApp_SendPeriodicMessage
        FUNCTION SampleApp_SendPeriodicMessage,021203H
        ARGFRAME XSTACK, 0, STACK
        LOCFRAME XSTACK, 19, STACK
        PUBLIC SampleApp_SendTestMessage
        FUNCTION SampleApp_SendTestMessage,021203H
        ARGFRAME XSTACK, 12, STACK
        ARGFRAME IOVERLAY, 0, STATIC
        ARGFRAME DOVERLAY, 0, STATIC
        LOCFRAME ISTACK, 1, STACK
        LOCFRAME XSTACK, 23, STACK
        PUBLIC SampleApp_Send_TestBATTERY_Message
        FUNCTION SampleApp_Send_TestBATTERY_Message,021203H
        ARGFRAME XSTACK, 12, STACK
        ARGFRAME IOVERLAY, 0, STATIC
        ARGFRAME DOVERLAY, 0, STATIC
        LOCFRAME ISTACK, 1, STACK
        LOCFRAME XSTACK, 46, STACK
        PUBLIC SampleApp_Send_TestID_Message
        FUNCTION SampleApp_Send_TestID_Message,021203H
        ARGFRAME XSTACK, 12, STACK
        ARGFRAME IOVERLAY, 0, STATIC
        ARGFRAME DOVERLAY, 0, STATIC
        LOCFRAME ISTACK, 1, STACK
        LOCFRAME XSTACK, 23, STACK
        PUBLIC SampleApp_Send_VDD_Message
        FUNCTION SampleApp_Send_VDD_Message,021203H
        ARGFRAME XSTACK, 12, STACK
        ARGFRAME IOVERLAY, 0, STATIC
        ARGFRAME DOVERLAY, 0, STATIC
        LOCFRAME ISTACK, 1, STACK
        LOCFRAME XSTACK, 44, STACK
        PUBLIC SampleApp_SimpleDesc
        PUBLIC SampleApp_TaskID
        PUBLIC SampleApp_TestID_DstAddr
        PUBLIC SampleApp_TransID
        PUBLIC SampleApp_UART_EVT
        FUNCTION SampleApp_UART_EVT,021203H
        ARGFRAME XSTACK, 12, STACK
        ARGFRAME IOVERLAY, 0, STATIC
        ARGFRAME DOVERLAY, 0, STATIC
        LOCFRAME ISTACK, 2, STACK
        PUBLIC SampleApp_epDesc
        PUBLIC Set_Panid
        FUNCTION Set_Panid,021203H
        ARGFRAME XSTACK, 15, STACK
        ARGFRAME IOVERLAY, 0, STATIC
        ARGFRAME DOVERLAY, 0, STATIC
        LOCFRAME XSTACK, 16, STACK
        PUBLIC Set_Test
        FUNCTION Set_Test,021203H
        ARGFRAME XSTACK, 44, STACK
        ARGFRAME IOVERLAY, 0, STATIC
        ARGFRAME DOVERLAY, 0, STATIC
        LOCFRAME ISTACK, 1, STACK
        LOCFRAME XSTACK, 15, STACK
        PUBLIC Set_id
        FUNCTION Set_id,021203H
        ARGFRAME XSTACK, 20, STACK
        ARGFRAME IOVERLAY, 0, STATIC
        ARGFRAME DOVERLAY, 0, STATIC
        LOCFRAME XSTACK, 16, STACK
        PUBWEAK WDCTL
        PUBWEAK _A_IEN0
        PUBWEAK _A_P1
        PUBWEAK _A_TCON
        PUBWEAK __Constant_42160000
        PUBLIC comparebuf
        FUNCTION comparebuf,021203H
        ARGFRAME XSTACK, 0, STACK
        ARGFRAME IOVERLAY, 0, STATIC
        ARGFRAME DOVERLAY, 0, STATIC
        LOCFRAME ISTACK, 2, STACK
        LOCFRAME XSTACK, 15, STACK
        PUBLIC hextoword1
        FUNCTION hextoword1,0203H
        ARGFRAME XSTACK, 38, STACK
        ARGFRAME IOVERLAY, 0, STATIC
        ARGFRAME DOVERLAY, 0, STATIC
        PUBLIC hextoword2
        FUNCTION hextoword2,0203H
        ARGFRAME XSTACK, 38, STACK
        ARGFRAME IOVERLAY, 0, STATIC
        ARGFRAME DOVERLAY, 0, STATIC
        PUBLIC myApp_ReadBattery
        FUNCTION myApp_ReadBattery,0203H
        ARGFRAME XSTACK, 37, STACK
        ARGFRAME IOVERLAY, 0, STATIC
        ARGFRAME DOVERLAY, 0, STATIC
        LOCFRAME XSTACK, 16, STACK
        PUBLIC rbuf_Free_Flag
        PUBLIC short_test
        
        CFI Names cfiNames0
        CFI StackFrame CFA_SP SP IDATA
        CFI StackFrame CFA_PSP16 PSP16 XDATA
        CFI StackFrame CFA_XSP16 XSP16 XDATA
        CFI StaticOverlayFrame CFA_IOVERLAY IOVERLAY
        CFI StaticOverlayFrame CFA_DOVERLAY DOVERLAY
        CFI Resource `PSW.CY`:1, `B.BR0`:1, `B.BR1`:1, `B.BR2`:1, `B.BR3`:1
        CFI Resource `B.BR4`:1, `B.BR5`:1, `B.BR6`:1, `B.BR7`:1, `VB.BR8`:1
        CFI Resource `VB.BR9`:1, `VB.BR10`:1, `VB.BR11`:1, `VB.BR12`:1
        CFI Resource `VB.BR13`:1, `VB.BR14`:1, `VB.BR15`:1, VB:8, B:8, A:8
        CFI Resource PSW:8, DPL0:8, DPH0:8, R0:8, R1:8, R2:8, R3:8, R4:8, R5:8
        CFI Resource R6:8, R7:8, V0:8, V1:8, V2:8, V3:8, V4:8, V5:8, V6:8, V7:8
        CFI Resource V8:8, V9:8, V10:8, V11:8, V12:8, V13:8, V14:8, V15:8, SP:8
        CFI Resource PSPH:8, PSPL:8, PSP16:16, XSPH:8, XSPL:8, XSP16:16
        CFI VirtualResource ?RET:24
        CFI Resource ?BRET_EXT:8
        CFI VirtualResource ?RET_HIGH:8, ?RET_LOW:8
        CFI ResourceParts PSP16 PSPH, PSPL
        CFI ResourceParts XSP16 XSPH, XSPL
        CFI ResourceParts ?RET ?BRET_EXT, ?RET_HIGH, ?RET_LOW
        CFI EndNames cfiNames0
        
        CFI Common cfiCommon0 Using cfiNames0
        CFI CodeAlign 1
        CFI DataAlign -1
        CFI ReturnAddress ?RET CODE
        CFI CFA_DOVERLAY Used
        CFI CFA_IOVERLAY Used
        CFI CFA_SP SP+-3
        CFI CFA_PSP16 PSP16+0
        CFI CFA_XSP16 XSP16+0
        CFI `PSW.CY` SameValue
        CFI `B.BR0` SameValue
        CFI `B.BR1` SameValue
        CFI `B.BR2` SameValue
        CFI `B.BR3` SameValue
        CFI `B.BR4` SameValue
        CFI `B.BR5` SameValue
        CFI `B.BR6` SameValue
        CFI `B.BR7` SameValue
        CFI `VB.BR8` SameValue
        CFI `VB.BR9` SameValue
        CFI `VB.BR10` SameValue
        CFI `VB.BR11` SameValue
        CFI `VB.BR12` SameValue
        CFI `VB.BR13` SameValue
        CFI `VB.BR14` SameValue
        CFI `VB.BR15` SameValue
        CFI VB SameValue
        CFI B Undefined
        CFI A Undefined
        CFI PSW SameValue
        CFI DPL0 SameValue
        CFI DPH0 SameValue
        CFI R0 Undefined
        CFI R1 Undefined
        CFI R2 Undefined
        CFI R3 Undefined
        CFI R4 Undefined
        CFI R5 Undefined
        CFI R6 SameValue
        CFI R7 SameValue
        CFI V0 SameValue
        CFI V1 SameValue
        CFI V2 SameValue
        CFI V3 SameValue
        CFI V4 SameValue
        CFI V5 SameValue
        CFI V6 SameValue
        CFI V7 SameValue
        CFI V8 SameValue
        CFI V9 SameValue
        CFI V10 SameValue
        CFI V11 SameValue
        CFI V12 SameValue
        CFI V13 SameValue
        CFI V14 SameValue
        CFI V15 SameValue
        CFI PSPH Undefined
        CFI PSPL Undefined
        CFI XSPH Undefined
        CFI XSPL Undefined
        CFI ?RET Concat
        CFI ?BRET_EXT Frame(CFA_SP, 3)
        CFI ?RET_HIGH Frame(CFA_SP, 2)
        CFI ?RET_LOW Frame(CFA_SP, 1)
        CFI EndCommon cfiCommon0
        
        
        CFI Common cfiCommon1 Using cfiNames0
        CFI CodeAlign 1
        CFI DataAlign -1
        CFI ReturnAddress ?RET CODE
        CFI CFA_DOVERLAY Used
        CFI CFA_IOVERLAY Used
        CFI CFA_SP SP+-2
        CFI CFA_PSP16 PSP16+0
        CFI CFA_XSP16 XSP16+0
        CFI `PSW.CY` SameValue
        CFI `B.BR0` SameValue
        CFI `B.BR1` SameValue
        CFI `B.BR2` SameValue
        CFI `B.BR3` SameValue
        CFI `B.BR4` SameValue
        CFI `B.BR5` SameValue
        CFI `B.BR6` SameValue
        CFI `B.BR7` SameValue
        CFI `VB.BR8` SameValue
        CFI `VB.BR9` SameValue
        CFI `VB.BR10` SameValue
        CFI `VB.BR11` SameValue
        CFI `VB.BR12` SameValue
        CFI `VB.BR13` SameValue
        CFI `VB.BR14` SameValue
        CFI `VB.BR15` SameValue
        CFI VB SameValue
        CFI B SameValue
        CFI A SameValue
        CFI PSW SameValue
        CFI DPL0 SameValue
        CFI DPH0 SameValue
        CFI R0 SameValue
        CFI R1 SameValue
        CFI R2 SameValue
        CFI R3 SameValue
        CFI R4 SameValue
        CFI R5 SameValue
        CFI R6 SameValue
        CFI R7 SameValue
        CFI V0 SameValue
        CFI V1 SameValue
        CFI V2 SameValue
        CFI V3 SameValue
        CFI V4 SameValue
        CFI V5 SameValue
        CFI V6 SameValue
        CFI V7 SameValue
        CFI V8 SameValue
        CFI V9 SameValue
        CFI V10 SameValue
        CFI V11 SameValue
        CFI V12 SameValue
        CFI V13 SameValue
        CFI V14 SameValue
        CFI V15 SameValue
        CFI PSPH Undefined
        CFI PSPL Undefined
        CFI XSPH Undefined
        CFI XSPL Undefined
        CFI ?RET Concat
        CFI ?BRET_EXT SameValue
        CFI ?RET_HIGH Frame(CFA_SP, 2)
        CFI ?RET_LOW Frame(CFA_SP, 1)
        CFI EndCommon cfiCommon1
        
afRegister          SYMBOL "afRegister"
RegisterForKeys     SYMBOL "RegisterForKeys"
osal_memcpy         SYMBOL "osal_memcpy"
aps_AddGroup        SYMBOL "aps_AddGroup"
readbuf             SYMBOL "readbuf"
osal_msg_receive    SYMBOL "osal_msg_receive"
osal_start_timerEx  SYMBOL "osal_start_timerEx"
osal_msg_deallocate SYMBOL "osal_msg_deallocate"
osal_mem_free       SYMBOL "osal_mem_free"
aps_FindGroup       SYMBOL "aps_FindGroup"
aps_RemoveGroup     SYMBOL "aps_RemoveGroup"
osal_nv_item_init   SYMBOL "osal_nv_item_init"
osal_nv_read        SYMBOL "osal_nv_read"
HalUARTWrite        SYMBOL "HalUARTWrite"
osal_rand           SYMBOL "osal_rand"
AF_DataRequest      SYMBOL "AF_DataRequest"
NLME_GetShortAddr   SYMBOL "NLME_GetShortAddr"
osal_nv_write       SYMBOL "osal_nv_write"
NLME_UpdateNV       SYMBOL "NLME_UpdateNV"
??AF_DataRequest?relay SYMBOL "?relay", AF_DataRequest
??HalUARTWrite?relay SYMBOL "?relay", HalUARTWrite
??NLME_GetShortAddr?relay SYMBOL "?relay", NLME_GetShortAddr
??NLME_UpdateNV?relay SYMBOL "?relay", NLME_UpdateNV
??RegisterForKeys?relay SYMBOL "?relay", RegisterForKeys
??afRegister?relay  SYMBOL "?relay", afRegister
??aps_AddGroup?relay SYMBOL "?relay", aps_AddGroup
??aps_FindGroup?relay SYMBOL "?relay", aps_FindGroup
??aps_RemoveGroup?relay SYMBOL "?relay", aps_RemoveGroup
??osal_mem_free?relay SYMBOL "?relay", osal_mem_free
??osal_memcpy?relay SYMBOL "?relay", osal_memcpy
??osal_msg_deallocate?relay SYMBOL "?relay", osal_msg_deallocate
??osal_msg_receive?relay SYMBOL "?relay", osal_msg_receive
??osal_nv_item_init?relay SYMBOL "?relay", osal_nv_item_init
??osal_nv_read?relay SYMBOL "?relay", osal_nv_read
??osal_nv_write?relay SYMBOL "?relay", osal_nv_write
??osal_rand?relay   SYMBOL "?relay", osal_rand
??osal_start_timerEx?relay SYMBOL "?relay", osal_start_timerEx
??readbuf?relay     SYMBOL "?relay", readbuf
CheckToSetTest      SYMBOL "CheckToSetTest"
??CheckToSetTest?relay SYMBOL "?relay", CheckToSetTest
CompForVdd          SYMBOL "CompForVdd"
??CompForVdd?relay  SYMBOL "?relay", CompForVdd
CompforID           SYMBOL "CompforID"
??CompforID?relay   SYMBOL "?relay", CompforID
CompforTESTID       SYMBOL "CompforTESTID"
??CompforTESTID?relay SYMBOL "?relay", CompforTESTID
CompforTEST_BATTERY SYMBOL "CompforTEST_BATTERY"
??CompforTEST_BATTERY?relay SYMBOL "?relay", CompforTEST_BATTERY
CompforTestID       SYMBOL "CompforTestID"
??CompforTestID?relay SYMBOL "?relay", CompforTestID
IDISUSE             SYMBOL "IDISUSE"
??IDISUSE?relay     SYMBOL "?relay", IDISUSE
ID_Set              SYMBOL "ID_Set"
??ID_Set?relay      SYMBOL "?relay", ID_Set
Init_IDandTest      SYMBOL "Init_IDandTest"
??Init_IDandTest?relay SYMBOL "?relay", Init_IDandTest
ReadID              SYMBOL "ReadID"
??ReadID?relay      SYMBOL "?relay", ReadID
ReadPanidbuf        SYMBOL "ReadPanidbuf"
??ReadPanidbuf?relay SYMBOL "?relay", ReadPanidbuf
Read_Battery        SYMBOL "Read_Battery"
??Read_Battery?relay SYMBOL "?relay", Read_Battery
SampleApp_Broadcast_ForTest SYMBOL "SampleApp_Broadcast_ForTest"
??SampleApp_Broadcast_ForTest?relay SYMBOL "?relay", SampleApp_Broadcast_ForTest
SampleApp_Broadcast_TEST_BATTERY SYMBOL "SampleApp_Broadcast_TEST_BATTERY"
??SampleApp_Broadcast_TEST_BATTERY?relay SYMBOL "?relay", SampleApp_Broadcast_TEST_BATTERY
SampleApp_Broadcast_TEST_ID SYMBOL "SampleApp_Broadcast_TEST_ID"
??SampleApp_Broadcast_TEST_ID?relay SYMBOL "?relay", SampleApp_Broadcast_TEST_ID
SampleApp_Broadcast_Vdd SYMBOL "SampleApp_Broadcast_Vdd"
??SampleApp_Broadcast_Vdd?relay SYMBOL "?relay", SampleApp_Broadcast_Vdd
SampleApp_HandleKeys SYMBOL "SampleApp_HandleKeys"
??SampleApp_HandleKeys?relay SYMBOL "?relay", SampleApp_HandleKeys
SampleApp_Init      SYMBOL "SampleApp_Init"
??SampleApp_Init?relay SYMBOL "?relay", SampleApp_Init
SampleApp_MessageMSGCB SYMBOL "SampleApp_MessageMSGCB"
??SampleApp_MessageMSGCB?relay SYMBOL "?relay", SampleApp_MessageMSGCB
SampleApp_ProcessEvent SYMBOL "SampleApp_ProcessEvent"
??SampleApp_ProcessEvent?relay SYMBOL "?relay", SampleApp_ProcessEvent
SampleApp_SPI       SYMBOL "SampleApp_SPI"
??SampleApp_SPI?relay SYMBOL "?relay", SampleApp_SPI
SampleApp_SPI_SendData SYMBOL "SampleApp_SPI_SendData"
??SampleApp_SPI_SendData?relay SYMBOL "?relay", SampleApp_SPI_SendData
SampleApp_SendFlashMessage SYMBOL "SampleApp_SendFlashMessage"
??SampleApp_SendFlashMessage?relay SYMBOL "?relay", SampleApp_SendFlashMessage
SampleApp_SendPeriodicMessage SYMBOL "SampleApp_SendPeriodicMessage"
??SampleApp_SendPeriodicMessage?relay SYMBOL "?relay", SampleApp_SendPeriodicMessage
SampleApp_SendTestMessage SYMBOL "SampleApp_SendTestMessage"
??SampleApp_SendTestMessage?relay SYMBOL "?relay", SampleApp_SendTestMessage
SampleApp_Send_TestBATTERY_Message SYMBOL "SampleApp_Send_TestBATTERY_Message"
??SampleApp_Send_TestBATTERY_Message?relay SYMBOL "?relay", SampleApp_Send_TestBATTERY_Message
SampleApp_Send_TestID_Message SYMBOL "SampleApp_Send_TestID_Message"
??SampleApp_Send_TestID_Message?relay SYMBOL "?relay", SampleApp_Send_TestID_Message
SampleApp_Send_VDD_Message SYMBOL "SampleApp_Send_VDD_Message"
??SampleApp_Send_VDD_Message?relay SYMBOL "?relay", SampleApp_Send_VDD_Message
SampleApp_UART_EVT  SYMBOL "SampleApp_UART_EVT"
??SampleApp_UART_EVT?relay SYMBOL "?relay", SampleApp_UART_EVT
Set_Panid           SYMBOL "Set_Panid"
??Set_Panid?relay   SYMBOL "?relay", Set_Panid
Set_Test            SYMBOL "Set_Test"
??Set_Test?relay    SYMBOL "?relay", Set_Test
Set_id              SYMBOL "Set_id"
??Set_id?relay      SYMBOL "?relay", Set_id
comparebuf          SYMBOL "comparebuf"
??comparebuf?relay  SYMBOL "?relay", comparebuf
hextoword1          SYMBOL "hextoword1"
??hextoword1?relay  SYMBOL "?relay", hextoword1
hextoword2          SYMBOL "hextoword2"
??hextoword2?relay  SYMBOL "?relay", hextoword2
myApp_ReadBattery   SYMBOL "myApp_ReadBattery"
??myApp_ReadBattery?relay SYMBOL "?relay", myApp_ReadBattery

        EXTERN afRegister
        FUNCTION afRegister,0202H
        ARGFRAME ISTACK, 0, STACK
        ARGFRAME PSTACK, 0, STACK
        ARGFRAME XSTACK, 11, STACK
        ARGFRAME IOVERLAY, 0, STATIC
        ARGFRAME DOVERLAY, 0, STATIC
        EXTERN RegisterForKeys
        FUNCTION RegisterForKeys,0202H
        ARGFRAME ISTACK, 0, STACK
        ARGFRAME PSTACK, 0, STACK
        ARGFRAME XSTACK, 11, STACK
        ARGFRAME IOVERLAY, 0, STATIC
        ARGFRAME DOVERLAY, 0, STATIC
        EXTERN osal_memcpy
        FUNCTION osal_memcpy,0202H
        ARGFRAME ISTACK, 0, STACK
        ARGFRAME PSTACK, 0, STACK
        ARGFRAME XSTACK, 14, STACK
        ARGFRAME IOVERLAY, 0, STATIC
        ARGFRAME DOVERLAY, 0, STATIC
        EXTERN aps_AddGroup
        FUNCTION aps_AddGroup,0202H
        ARGFRAME ISTACK, 0, STACK
        ARGFRAME PSTACK, 0, STACK
        ARGFRAME XSTACK, 11, STACK
        ARGFRAME IOVERLAY, 0, STATIC
        ARGFRAME DOVERLAY, 0, STATIC
        EXTERN readbuf
        FUNCTION readbuf,0202H
        ARGFRAME ISTACK, 0, STACK
        ARGFRAME PSTACK, 0, STACK
        ARGFRAME XSTACK, 11, STACK
        ARGFRAME IOVERLAY, 0, STATIC
        ARGFRAME DOVERLAY, 0, STATIC
        EXTERN osal_msg_receive
        FUNCTION osal_msg_receive,0202H
        ARGFRAME ISTACK, 0, STACK
        ARGFRAME PSTACK, 0, STACK
        ARGFRAME XSTACK, 12, STACK
        ARGFRAME IOVERLAY, 0, STATIC
        ARGFRAME DOVERLAY, 0, STATIC
        EXTERN osal_start_timerEx
        FUNCTION osal_start_timerEx,0202H
        ARGFRAME ISTACK, 0, STACK
        ARGFRAME PSTACK, 0, STACK
        ARGFRAME XSTACK, 17, STACK
        ARGFRAME IOVERLAY, 0, STATIC
        ARGFRAME DOVERLAY, 0, STATIC
        EXTERN osal_msg_deallocate
        FUNCTION osal_msg_deallocate,0202H
        ARGFRAME ISTACK, 0, STACK
        ARGFRAME PSTACK, 0, STACK
        ARGFRAME XSTACK, 12, STACK
        ARGFRAME IOVERLAY, 0, STATIC
        ARGFRAME DOVERLAY, 0, STATIC
        EXTERN osal_mem_free
        FUNCTION osal_mem_free,0202H
        ARGFRAME ISTACK, 0, STACK
        ARGFRAME PSTACK, 0, STACK
        ARGFRAME XSTACK, 44, STACK
        ARGFRAME IOVERLAY, 0, STATIC
        ARGFRAME DOVERLAY, 0, STATIC
        EXTERN aps_FindGroup
        FUNCTION aps_FindGroup,0202H
        ARGFRAME ISTACK, 0, STACK
        ARGFRAME PSTACK, 0, STACK
        ARGFRAME XSTACK, 10, STACK
        ARGFRAME IOVERLAY, 0, STATIC
        ARGFRAME DOVERLAY, 0, STATIC
        EXTERN aps_RemoveGroup
        FUNCTION aps_RemoveGroup,0202H
        ARGFRAME ISTACK, 0, STACK
        ARGFRAME PSTACK, 0, STACK
        ARGFRAME XSTACK, 10, STACK
        ARGFRAME IOVERLAY, 0, STATIC
        ARGFRAME DOVERLAY, 0, STATIC
        EXTERN osal_nv_item_init
        FUNCTION osal_nv_item_init,0202H
        ARGFRAME ISTACK, 0, STACK
        ARGFRAME PSTACK, 0, STACK
        ARGFRAME XSTACK, 19, STACK
        ARGFRAME IOVERLAY, 0, STATIC
        ARGFRAME DOVERLAY, 0, STATIC
        EXTERN osal_nv_read
        FUNCTION osal_nv_read,0202H
        ARGFRAME ISTACK, 0, STACK
        ARGFRAME PSTACK, 0, STACK
        ARGFRAME XSTACK, 31, STACK
        ARGFRAME IOVERLAY, 0, STATIC
        ARGFRAME DOVERLAY, 0, STATIC
        EXTERN HalUARTWrite
        FUNCTION HalUARTWrite,0202H
        ARGFRAME ISTACK, 2, STACK
        ARGFRAME PSTACK, 0, STACK
        ARGFRAME XSTACK, 44, STACK
        ARGFRAME IOVERLAY, 0, STATIC
        ARGFRAME DOVERLAY, 0, STATIC
        EXTERN osal_rand
        FUNCTION osal_rand,0202H
        ARGFRAME ISTACK, 0, STACK
        ARGFRAME PSTACK, 0, STACK
        ARGFRAME XSTACK, 17, STACK
        ARGFRAME IOVERLAY, 0, STATIC
        ARGFRAME DOVERLAY, 0, STATIC
        EXTERN AF_DataRequest
        FUNCTION AF_DataRequest,0202H
        ARGFRAME ISTACK, 0, STACK
        ARGFRAME PSTACK, 0, STACK
        ARGFRAME XSTACK, 46, STACK
        ARGFRAME IOVERLAY, 0, STATIC
        ARGFRAME DOVERLAY, 0, STATIC
        EXTERN NLME_GetShortAddr
        FUNCTION NLME_GetShortAddr,0202H
        ARGFRAME ISTACK, 0, STACK
        ARGFRAME PSTACK, 0, STACK
        ARGFRAME XSTACK, 38, STACK
        ARGFRAME IOVERLAY, 0, STATIC
        ARGFRAME DOVERLAY, 0, STATIC
        EXTERN osal_nv_write
        FUNCTION osal_nv_write,0202H
        ARGFRAME ISTACK, 0, STACK
        ARGFRAME PSTACK, 0, STACK
        ARGFRAME XSTACK, 16, STACK
        ARGFRAME IOVERLAY, 0, STATIC
        ARGFRAME DOVERLAY, 0, STATIC
        EXTERN NLME_UpdateNV
        FUNCTION NLME_UpdateNV,0202H
        ARGFRAME ISTACK, 0, STACK
        ARGFRAME PSTACK, 0, STACK
        ARGFRAME XSTACK, 12, STACK
        ARGFRAME IOVERLAY, 0, STATIC
        ARGFRAME DOVERLAY, 0, STATIC
        EXTERN ??AF_DataRequest?relay
        FUNCTION ??AF_DataRequest?relay,00H
        EXTERN ??HalUARTWrite?relay
        FUNCTION ??HalUARTWrite?relay,00H
        EXTERN ??NLME_GetShortAddr?relay
        FUNCTION ??NLME_GetShortAddr?relay,00H
        EXTERN ??NLME_UpdateNV?relay
        FUNCTION ??NLME_UpdateNV?relay,00H
        EXTERN ??RegisterForKeys?relay
        FUNCTION ??RegisterForKeys?relay,00H
        EXTERN ??afRegister?relay
        FUNCTION ??afRegister?relay,00H
        EXTERN ??aps_AddGroup?relay
        FUNCTION ??aps_AddGroup?relay,00H
        EXTERN ??aps_FindGroup?relay
        FUNCTION ??aps_FindGroup?relay,00H
        EXTERN ??aps_RemoveGroup?relay
        FUNCTION ??aps_RemoveGroup?relay,00H
        EXTERN ??osal_mem_free?relay
        FUNCTION ??osal_mem_free?relay,00H
        EXTERN ??osal_memcpy?relay
        FUNCTION ??osal_memcpy?relay,00H
        EXTERN ??osal_msg_deallocate?relay
        FUNCTION ??osal_msg_deallocate?relay,00H
        EXTERN ??osal_msg_receive?relay
        FUNCTION ??osal_msg_receive?relay,00H
        EXTERN ??osal_nv_item_init?relay
        FUNCTION ??osal_nv_item_init?relay,00H
        EXTERN ??osal_nv_read?relay
        FUNCTION ??osal_nv_read?relay,00H
        EXTERN ??osal_nv_write?relay
        FUNCTION ??osal_nv_write?relay,00H
        EXTERN ??osal_rand?relay
        FUNCTION ??osal_rand?relay,00H
        EXTERN ??osal_start_timerEx?relay
        FUNCTION ??osal_start_timerEx?relay,00H
        EXTERN ??readbuf?relay
        FUNCTION ??readbuf?relay,00H
        EXTERN IDbuf
        EXTERN buflen
        EXTERN devStartMode
        EXTERN pIDbuf
        EXTERN rbuf
        EXTERN rxlen

// C:\Documents and Settings\Administrator\桌面\ZStack-CC2530-2.3.1-1.4.0\Projects\zstack\Samples\SampleApp\Source\SampleApp.c
//    1 /**************************************************************************************************
//    2   Filename:       SampleApp.c
//    3   Revised:        $Date: 2009-03-18 15:56:27 -0700 (Wed, 18 Mar 2009) $
//    4   Revision:       $Revision: 19453 $
//    5 
//    6   Description:    Sample Application (no Profile).
//    7 **************************************************************************************************/
//    8 
//    9 /*********************************************************************
//   10   This application isn't intended to do anything useful, it is
//   11   intended to be a simple example of an application's structure.
//   12 
//   13   This application sends it's messages either as broadcast or
//   14   broadcast filtered group messages.  The other (more normal)
//   15   message addressing is unicast.  Most of the other sample
//   16   applications are written to support the unicast message model.
//   17 
//   18   Key control:
//   19     SW1:  Sends a flash command to all devices in Group 1.
//   20     SW2:  Adds/Removes (toggles) this device in and out
//   21           of Group 1.  This will enable and disable the
//   22           reception of the flash command.
//   23 *********************************************************************/
//   24 
//   25 /*********************************************************************
//   26  * INCLUDES
//   27  */
//   28 #include "OSAL.h"
//   29 #include "ZGlobals.h"
//   30 #include "AF.h"
//   31 #include "aps_groups.h"
//   32 #include "ZDApp.h"
//   33 
//   34 #include "SampleApp.h"
//   35 #include "SampleAppHw.h"
//   36 
//   37 #include "OnBoard.h"

        ASEGN SFR_AN:DATA:NOROOT,088H
// union <unnamed> volatile __sfr _A_TCON
_A_TCON:
        DS 1

        ASEGN SFR_AN:DATA:NOROOT,090H
// union <unnamed> volatile __sfr _A_P1
_A_P1:
        DS 1

        ASEGN SFR_AN:DATA:NOROOT,0a8H
// union <unnamed> volatile __sfr _A_IEN0
_A_IEN0:
        DS 1

        ASEGN SFR_AN:DATA:NOROOT,0b6H
// unsigned char volatile __sfr ADCCON3
ADCCON3:
        DS 1

        ASEGN SFR_AN:DATA:NOROOT,0baH
// unsigned char volatile __sfr ADCL
ADCL:
        DS 1

        ASEGN SFR_AN:DATA:NOROOT,0bbH
// unsigned char volatile __sfr ADCH
ADCH:
        DS 1

        ASEGN SFR_AN:DATA:NOROOT,0c9H
// unsigned char volatile __sfr WDCTL
WDCTL:
        DS 1
//   38 
//   39 /* HAL */
//   40 #include "hal_lcd.h"
//   41 #include "hal_led.h"
//   42 #include "hal_key.h"
//   43 #include "OSAL_Nv.h"
//   44 #include "ZDObject.h"
//   45 /*********************************************************************
//   46  * MACROS
//   47  */
//   48 
//   49 /*********************************************************************
//   50  * CONSTANTS
//   51  */
//   52 
//   53 /*********************************************************************
//   54  * TYPEDEFS
//   55  */
//   56 
//   57 /*********************************************************************
//   58  * GLOBAL VARIABLES
//   59  */
//   60 
//   61 // This list should be filled with Application specific Cluster IDs.

        RSEG XDATA_ROM_C:CONST:REORDER:NOROOT(0)
        DATA
//   62 const cId_t SampleApp_ClusterList[SAMPLEAPP_MAX_CLUSTERS] =
SampleApp_ClusterList:
        DW 1, 2
        DB 0, 0, 0, 0, 0, 0, 0, 0, 0, 0, 0, 0, 0, 0, 0, 0
//   63 {
//   64   SAMPLEAPP_PERIODIC_CLUSTERID,
//   65   SAMPLEAPP_FLASH_CLUSTERID
//   66 };
//   67 

        RSEG XDATA_ROM_C:CONST:REORDER:NOROOT(0)
        DATA
//   68 const SimpleDescriptionFormat_t SampleApp_SimpleDesc =
SampleApp_SimpleDesc:
        DB 20
        DW 3848, 1
        DB 0, 10
        DW SampleApp_ClusterList
        DB 10
        DW SampleApp_ClusterList
//   69 {
//   70   SAMPLEAPP_ENDPOINT,              //  int Endpoint;
//   71   SAMPLEAPP_PROFID,                //  uint16 AppProfId[2];
//   72   SAMPLEAPP_DEVICEID,              //  uint16 AppDeviceId[2];
//   73   SAMPLEAPP_DEVICE_VERSION,        //  int   AppDevVer:4;
//   74   SAMPLEAPP_FLAGS,                 //  int   AppFlags:4;
//   75   SAMPLEAPP_MAX_CLUSTERS,          //  uint8  AppNumInClusters;
//   76   (cId_t *)SampleApp_ClusterList,  //  uint8 *pAppInClusterList;
//   77   SAMPLEAPP_MAX_CLUSTERS,          //  uint8  AppNumInClusters;
//   78   (cId_t *)SampleApp_ClusterList   //  uint8 *pAppInClusterList;
//   79 };
//   80 
//   81 // This is the Endpoint/Interface description.  It is defined here, but
//   82 // filled-in in SampleApp_Init().  Another way to go would be to fill
//   83 // in the structure here and make it a "const" (in code space).  The
//   84 // way it's defined in this sample app it is define in RAM.

        RSEG XDATA_Z:XDATA:NOROOT(0)
//   85 endPointDesc_t SampleApp_epDesc;
SampleApp_epDesc:
        DS 6
        REQUIRE __INIT_XDATA_Z
//   86 
//   87 /*********************************************************************
//   88  * EXTERNAL VARIABLES
//   89  */
//   90 
//   91 /*********************************************************************
//   92  * EXTERNAL FUNCTIONS
//   93  */
//   94 
//   95 /*********************************************************************
//   96  * LOCAL VARIABLES
//   97  */

        RSEG XDATA_Z:XDATA:NOROOT(0)
//   98 uint8 SampleApp_TaskID;   // Task ID for internal task/event processing
SampleApp_TaskID:
        DS 1
        REQUIRE __INIT_XDATA_Z
//   99                           // This variable will be received when
//  100                           // SampleApp_Init() is called.

        RSEG XDATA_Z:XDATA:NOROOT(0)
//  101 devStates_t SampleApp_NwkState;
SampleApp_NwkState:
        DS 1
        REQUIRE __INIT_XDATA_Z
//  102 

        RSEG XDATA_Z:XDATA:NOROOT(0)
//  103 uint8 SampleApp_TransID;  // This is the unique message ID (counter)
SampleApp_TransID:
        DS 1
        REQUIRE __INIT_XDATA_Z
//  104 

        RSEG XDATA_Z:XDATA:NOROOT(0)
//  105 afAddrType_t SampleApp_Periodic_DstAddr;
SampleApp_Periodic_DstAddr:
        DS 12
        REQUIRE __INIT_XDATA_Z

        RSEG XDATA_Z:XDATA:NOROOT(0)
//  106 afAddrType_t SampleApp_Flash_DstAddr;
SampleApp_Flash_DstAddr:
        DS 12
        REQUIRE __INIT_XDATA_Z

        RSEG XDATA_Z:XDATA:NOROOT(0)
//  107 afAddrType_t SampleApp_SPI_SendData_DstAddr;
SampleApp_SPI_SendData_DstAddr:
        DS 12
        REQUIRE __INIT_XDATA_Z

        RSEG XDATA_Z:XDATA:NOROOT(0)
//  108 afAddrType_t SampleApp_TestID_DstAddr;
SampleApp_TestID_DstAddr:
        DS 12
        REQUIRE __INIT_XDATA_Z

        RSEG XDATA_Z:XDATA:NOROOT(0)
//  109 aps_Group_t SampleApp_Group;
SampleApp_Group:
        DS 18
        REQUIRE __INIT_XDATA_Z
//  110 

        RSEG XDATA_Z:XDATA:NOROOT(0)
//  111 uint8 SampleAppPeriodicCounter = 0;
SampleAppPeriodicCounter:
        DS 1
        REQUIRE __INIT_XDATA_Z

        RSEG XDATA_Z:XDATA:NOROOT(0)
//  112 uint8 SampleAppFlashCounter = 0;
SampleAppFlashCounter:
        DS 1
        REQUIRE __INIT_XDATA_Z

        RSEG XDATA_Z:XDATA:NOROOT(0)
//  113 uint16 short_test;
short_test:
        DS 2
        REQUIRE __INIT_XDATA_Z
//  114 
//  115 extern uint8* rbuf;  //接收数据指针
//  116 extern uint8  rxlen;    //接收数据长度
//  117 extern uint8 buflen;
//  118 extern devStartModes_t devStartMode;
//  119 extern uint8 IDbuf[5];  //ID
//  120 extern uint8 pIDbuf[5];
//  121 extern void readbuf(void);
//  122 /*********************************************************************
//  123  * LOCAL FUNCTIONS
//  124  */
//  125 void SampleApp_HandleKeys( uint8 shift, uint8 keys );
//  126 void SampleApp_MessageMSGCB( afIncomingMSGPacket_t *pckt );
//  127 void SampleApp_SendPeriodicMessage( void );
//  128 void SampleApp_SendFlashMessage( uint16 flashTime );
//  129 
//  130 void SampleApp_SPI(void);
//  131 uint8 hextoword2(uint8 t);
//  132 uint8 hextoword1(uint8 t);
//  133 void Set_Panid(uint16 u16NewPaind);
//  134 void comparebuf(uint8 *dat);
//  135 void ReadPanidbuf(uint8 *dat);
//  136 void SampleApp_SPI_SendData( uint8 *buf, uint8 len );
//  137 void SampleApp_UART_EVT(void);
//  138 
//  139 //ID类
//  140 void ReadID(uint8 *dat);
//  141 void Set_id(uint16 u16NewPaind);
//  142 void CompforID(uint8 *dat);
//  143 
//  144 //TEST类
//  145 void Set_Test(uint8 u16NewPaind);
//  146 void CheckToSetTest(uint8 *dat);
//  147 
//  148 //ID类
//  149 void ID_Set(uint8 u16NewPaind);
//  150 void IDISUSE(uint8 *dat);
//  151 
//  152 //统计功能
//  153 void CompforTestID(uint8 *dat);
//  154 void SampleApp_Broadcast_ForTest(void);
//  155 
//  156 //统计回应
//  157 void SampleApp_SendTestMessage(void);
//  158 
//  159 //默认情况
//  160 void Init_IDandTest(void);
//  161 
//  162 //电压检测
//  163 uint8 myApp_ReadBattery( void );
//  164 void Read_Battery(void);
//  165 void SampleApp_Send_VDD_Message(void);
//  166 void SampleApp_Broadcast_Vdd(void);
//  167 void CompForVdd(uint8 *dat);
//  168 
//  169 //测试节点ID
//  170 void CompforTESTID(uint8 *dat);
//  171 void SampleApp_Broadcast_TEST_ID(void);
//  172 void SampleApp_Send_TestID_Message(void);
//  173 
//  174 //测试节点BATTERY
//  175 void SampleApp_Send_TestBATTERY_Message(void);
//  176 void SampleApp_Broadcast_TEST_BATTERY(void);
//  177 void CompforTEST_BATTERY(uint8 *dat);
//  178 
//  179 /*********************************************************************
//  180  * NETWORK LAYER CALLBACKS
//  181  */
//  182 
//  183 /*********************************************************************
//  184  * PUBLIC FUNCTIONS
//  185  */
//  186 
//  187 /*********************************************************************
//  188  * @fn      SampleApp_Init
//  189  *
//  190  * @brief   Initialization function for the Generic App Task.
//  191  *          This is called during initialization and should contain
//  192  *          any application specific initialization (ie. hardware
//  193  *          initialization/setup, table initialization, power up
//  194  *          notificaiton ... ).
//  195  *
//  196  * @param   task_id - the ID assigned by OSAL.  This ID should be
//  197  *                    used to send messages and set timers.
//  198  *
//  199  * @return  none
//  200  */

        RSEG BANKED_CODE:CODE:NOROOT(0)
//  201 void SampleApp_Init( uint8 task_id )
SampleApp_Init:
        CFI Block cfiBlock0 Using cfiCommon0
        CFI Function SampleApp_Init
//  202 {
        FUNCALL SampleApp_Init, afRegister
        LOCFRAME ISTACK, 0, STACK
        LOCFRAME PSTACK, 0, STACK
        LOCFRAME XSTACK, 11, STACK
        LOCFRAME IOVERLAY, 0, STATIC
        LOCFRAME DOVERLAY, 0, STATIC
        ARGFRAME ISTACK, 0, STACK
        ARGFRAME PSTACK, 0, STACK
        ARGFRAME XSTACK, 11, STACK
        ARGFRAME IOVERLAY, 0, STATIC
        ARGFRAME DOVERLAY, 0, STATIC
        FUNCALL SampleApp_Init, RegisterForKeys
        LOCFRAME ISTACK, 0, STACK
        LOCFRAME PSTACK, 0, STACK
        LOCFRAME XSTACK, 11, STACK
        LOCFRAME IOVERLAY, 0, STATIC
        LOCFRAME DOVERLAY, 0, STATIC
        ARGFRAME ISTACK, 0, STACK
        ARGFRAME PSTACK, 0, STACK
        ARGFRAME XSTACK, 11, STACK
        ARGFRAME IOVERLAY, 0, STATIC
        ARGFRAME DOVERLAY, 0, STATIC
        FUNCALL SampleApp_Init, osal_memcpy
        LOCFRAME ISTACK, 0, STACK
        LOCFRAME PSTACK, 0, STACK
        LOCFRAME XSTACK, 14, STACK
        LOCFRAME IOVERLAY, 0, STATIC
        LOCFRAME DOVERLAY, 0, STATIC
        ARGFRAME ISTACK, 0, STACK
        ARGFRAME PSTACK, 0, STACK
        ARGFRAME XSTACK, 14, STACK
        ARGFRAME IOVERLAY, 0, STATIC
        ARGFRAME DOVERLAY, 0, STATIC
        FUNCALL SampleApp_Init, aps_AddGroup
        LOCFRAME ISTACK, 0, STACK
        LOCFRAME PSTACK, 0, STACK
        LOCFRAME XSTACK, 11, STACK
        LOCFRAME IOVERLAY, 0, STATIC
        LOCFRAME DOVERLAY, 0, STATIC
        ARGFRAME ISTACK, 0, STACK
        ARGFRAME PSTACK, 0, STACK
        ARGFRAME XSTACK, 11, STACK
        ARGFRAME IOVERLAY, 0, STATIC
        ARGFRAME DOVERLAY, 0, STATIC
        FUNCALL SampleApp_Init, readbuf
        LOCFRAME ISTACK, 0, STACK
        LOCFRAME PSTACK, 0, STACK
        LOCFRAME XSTACK, 11, STACK
        LOCFRAME IOVERLAY, 0, STATIC
        LOCFRAME DOVERLAY, 0, STATIC
        ARGFRAME ISTACK, 0, STACK
        ARGFRAME PSTACK, 0, STACK
        ARGFRAME XSTACK, 11, STACK
        ARGFRAME IOVERLAY, 0, STATIC
        ARGFRAME DOVERLAY, 0, STATIC
        FUNCALL SampleApp_Init, Init_IDandTest
        LOCFRAME ISTACK, 0, STACK
        LOCFRAME PSTACK, 0, STACK
        LOCFRAME XSTACK, 11, STACK
        LOCFRAME IOVERLAY, 0, STATIC
        LOCFRAME DOVERLAY, 0, STATIC
        ARGFRAME ISTACK, 0, STACK
        ARGFRAME PSTACK, 0, STACK
        ARGFRAME XSTACK, 11, STACK
        ARGFRAME IOVERLAY, 0, STATIC
        ARGFRAME DOVERLAY, 0, STATIC
        MOV     A,#-0xb
        LCALL   ?BANKED_ENTER_XDATA
        CFI DPH0 load(1, XDATA, add(CFA_XSP16, literal(-1)))
        CFI DPL0 load(1, XDATA, add(CFA_XSP16, literal(-2)))
        CFI ?BRET_EXT load(1, XDATA, add(CFA_XSP16, literal(-3)))
        CFI ?RET_HIGH load(1, XDATA, add(CFA_XSP16, literal(-4)))
        CFI ?RET_LOW load(1, XDATA, add(CFA_XSP16, literal(-5)))
        CFI R7 load(1, XDATA, add(CFA_XSP16, literal(-6)))
        CFI V2 load(1, XDATA, add(CFA_XSP16, literal(-7)))
        CFI V1 load(1, XDATA, add(CFA_XSP16, literal(-8)))
        CFI V0 load(1, XDATA, add(CFA_XSP16, literal(-9)))
        CFI VB load(1, XDATA, add(CFA_XSP16, literal(-10)))
        CFI R6 load(1, XDATA, add(CFA_XSP16, literal(-11)))
        CFI CFA_SP SP+0
        CFI CFA_XSP16 add(XSP16, 11)
        ; Saved register size: 11
        ; Auto size: 0
//  203   SampleApp_TaskID = task_id;
        MOV     A,R1
        MOV     DPTR,#SampleApp_TaskID
        MOVX    @DPTR,A
//  204   SampleApp_NwkState = DEV_INIT;
        MOV     A,#0x1
        MOV     DPTR,#SampleApp_NwkState
        MOVX    @DPTR,A
//  205   SampleApp_TransID = 0;
        CLR     A
        MOV     DPTR,#SampleApp_TransID
        MOVX    @DPTR,A
//  206 
//  207   // Device hardware initialization can be added here or in main() (Zmain.c).
//  208   // If the hardware is application specific - add it here.
//  209   // If the hardware is other parts of the device add it in main().
//  210 
//  211  /*#if defined ( BUILD_ALL_DEVICES )
//  212   // The "Demo" target is setup to have BUILD_ALL_DEVICES and HOLD_AUTO_START
//  213   // We are looking at a jumper (defined in SampleAppHw.c) to be jumpered
//  214   // together - if they are - we will start up a coordinator. Otherwise,
//  215   // the device will start as a router.
//  216   if ( readCoordinatorJumper() )
//  217     zgDeviceLogicalType = ZG_DEVICETYPE_COORDINATOR;
//  218   else
//  219     zgDeviceLogicalType = ZG_DEVICETYPE_ROUTER;
//  220 #endif // BUILD_ALL_DEVICES*/
//  221 
//  222 #if defined ( HOLD_AUTO_START )
//  223   // HOLD_AUTO_START is a compile option that will surpress ZDApp
//  224   //  from starting the device and wait for the application to
//  225   //  start the device.
//  226   ZDOInitDevice(0);
//  227 #endif
//  228 
//  229   // Setup for the periodic message's destination address
//  230   // TEST功能，用单播，广播占带宽！！
//  231   SampleApp_Periodic_DstAddr.addrMode = (afAddrMode_t)Addr16Bit;
        MOV     A,#0x2
        MOV     DPTR,#(SampleApp_Periodic_DstAddr + 8)
        MOVX    @DPTR,A
//  232   SampleApp_Periodic_DstAddr.endPoint = SAMPLEAPP_ENDPOINT;
        MOV     A,#0x14
        MOV     DPTR,#(SampleApp_Periodic_DstAddr + 9)
        MOVX    @DPTR,A
//  233   SampleApp_Periodic_DstAddr.addr.shortAddr = 0x0000;
        MOV     DPTR,#SampleApp_Periodic_DstAddr
        CLR     A
        MOVX    @DPTR,A
        INC     DPTR
        MOVX    @DPTR,A
//  234 
//  235   // Setup for the flash command's destination address - Group 1
//  236   SampleApp_Flash_DstAddr.addrMode = (afAddrMode_t)afAddrGroup;
        MOV     A,#0x1
        MOV     DPTR,#(SampleApp_Flash_DstAddr + 8)
        MOVX    @DPTR,A
//  237   SampleApp_Flash_DstAddr.endPoint = SAMPLEAPP_ENDPOINT;
        MOV     A,#0x14
        MOV     DPTR,#(SampleApp_Flash_DstAddr + 9)
        MOVX    @DPTR,A
//  238   SampleApp_Flash_DstAddr.addr.shortAddr = SAMPLEAPP_FLASH_GROUP;
        MOV     DPTR,#SampleApp_Flash_DstAddr
        MOV     A,#0x1
        MOVX    @DPTR,A
        INC     DPTR
        CLR     A
        MOVX    @DPTR,A
//  239 
//  240   // Fill out the endpoint description.
//  241   SampleApp_epDesc.endPoint = SAMPLEAPP_ENDPOINT;
        MOV     A,#0x14
        MOV     DPTR,#SampleApp_epDesc
        MOVX    @DPTR,A
//  242   SampleApp_epDesc.task_id = &SampleApp_TaskID;
        MOV     DPTR,#(SampleApp_epDesc + 1)
        MOV     A,#(SampleApp_TaskID & 0xff)
        MOVX    @DPTR,A
        INC     DPTR
        MOV     A,#((SampleApp_TaskID >> 8) & 0xff)
        MOVX    @DPTR,A
//  243   SampleApp_epDesc.simpleDesc
//  244             = (SimpleDescriptionFormat_t *)&SampleApp_SimpleDesc;
        MOV     DPTR,#(SampleApp_epDesc + 3)
        MOV     A,#(SampleApp_SimpleDesc & 0xff)
        MOVX    @DPTR,A
        INC     DPTR
        MOV     A,#((SampleApp_SimpleDesc >> 8) & 0xff)
        MOVX    @DPTR,A
//  245   SampleApp_epDesc.latencyReq = noLatencyReqs;
        CLR     A
        MOV     DPTR,#(SampleApp_epDesc + 5)
        MOVX    @DPTR,A
//  246 
//  247   // Register the endpoint description with the AF
//  248   afRegister( &SampleApp_epDesc );
        ; Setup parameters for call to function afRegister
        MOV     R2,#(SampleApp_epDesc & 0xff)
        MOV     R3,#((SampleApp_epDesc >> 8) & 0xff)
        LCALL   ??afRegister?relay
//  249 
//  250   // Register for all key events - This app will handle all key events
//  251   RegisterForKeys( SampleApp_TaskID );
        ; Setup parameters for call to function RegisterForKeys
        MOV     DPTR,#SampleApp_TaskID
        MOVX    A,@DPTR
        MOV     R1,A
        LCALL   ??RegisterForKeys?relay
//  252 
//  253   // By default, all devices start out in Group 1
//  254   SampleApp_Group.ID = 0x0001;
        MOV     DPTR,#SampleApp_Group
        MOV     A,#0x1
        MOVX    @DPTR,A
        INC     DPTR
        CLR     A
        MOVX    @DPTR,A
//  255   osal_memcpy( SampleApp_Group.name, "Group 1", 7  );
        ; Setup parameters for call to function osal_memcpy
        MOV     ?V0 + 0,#(`?<Constant "Group 1">` & 0xff)
        MOV     ?V0 + 1,#((`?<Constant "Group 1">` >> 8) & 0xff)
        MOV     ?V0 + 2,A
        MOV     R0,#?V0 + 0
        LCALL   ?PUSH_XSTACK_I_THREE
        CFI CFA_XSP16 add(XSP16, 14)
        MOV     R4,#0x7
        MOV     R5,#0x0
        MOV     R2,#((SampleApp_Group + 2) & 0xff)
        MOV     R3,#(((SampleApp_Group + 2) >> 8) & 0xff)
        LCALL   ??osal_memcpy?relay
        MOV     A,#0x3
        LCALL   ?DEALLOC_XSTACK8
        CFI CFA_XSP16 add(XSP16, 11)
//  256   aps_AddGroup( SAMPLEAPP_ENDPOINT, &SampleApp_Group );
        ; Setup parameters for call to function aps_AddGroup
        MOV     R2,#(SampleApp_Group & 0xff)
        MOV     R3,#((SampleApp_Group >> 8) & 0xff)
        MOV     R1,#0x14
        LCALL   ??aps_AddGroup?relay
//  257 
//  258 #if defined ( LCD_SUPPORTED )
//  259   HalLcdWriteString( "SampleApp", HAL_LCD_LINE_1 );
//  260 #endif
//  261   
//  262   readbuf();//初始化，获取ID值
        ; Setup parameters for call to function readbuf
        LCALL   ??readbuf?relay
//  263   Init_IDandTest();//设置默认启用ID和TEST功能
        ; Setup parameters for call to function Init_IDandTest
        LCALL   ??Init_IDandTest?relay
//  264 }
        MOV     R7,#0x3
        LJMP    ?BANKED_LEAVE_XDATA
        CFI EndBlock cfiBlock0
//  265 
//  266 /*********************************************************************
//  267  * @fn      SampleApp_ProcessEvent
//  268  *
//  269  * @brief   Generic Application Task event processor.  This function
//  270  *          is called to process all events for the task.  Events
//  271  *          include timers, messages and any other user defined events.
//  272  *
//  273  * @param   task_id  - The OSAL assigned task ID.
//  274  * @param   events - events to process.  This is a bit map and can
//  275  *                   contain more than one event.
//  276  *
//  277  * @return  none
//  278  */

        RSEG BANKED_CODE:CODE:NOROOT(0)
//  279 uint16 SampleApp_ProcessEvent( uint8 task_id, uint16 events )
SampleApp_ProcessEvent:
        CFI Block cfiBlock1 Using cfiCommon0
        CFI Function SampleApp_ProcessEvent
//  280 {
        FUNCALL SampleApp_ProcessEvent, osal_msg_receive
        LOCFRAME ISTACK, 0, STACK
        LOCFRAME PSTACK, 0, STACK
        LOCFRAME XSTACK, 12, STACK
        LOCFRAME IOVERLAY, 0, STATIC
        LOCFRAME DOVERLAY, 0, STATIC
        ARGFRAME ISTACK, 0, STACK
        ARGFRAME PSTACK, 0, STACK
        ARGFRAME XSTACK, 12, STACK
        ARGFRAME IOVERLAY, 0, STATIC
        ARGFRAME DOVERLAY, 0, STATIC
        FUNCALL SampleApp_ProcessEvent, osal_start_timerEx
        LOCFRAME ISTACK, 0, STACK
        LOCFRAME PSTACK, 0, STACK
        LOCFRAME XSTACK, 12, STACK
        LOCFRAME IOVERLAY, 0, STATIC
        LOCFRAME DOVERLAY, 0, STATIC
        ARGFRAME ISTACK, 0, STACK
        ARGFRAME PSTACK, 0, STACK
        ARGFRAME XSTACK, 12, STACK
        ARGFRAME IOVERLAY, 0, STATIC
        ARGFRAME DOVERLAY, 0, STATIC
        FUNCALL SampleApp_ProcessEvent, osal_msg_deallocate
        LOCFRAME ISTACK, 0, STACK
        LOCFRAME PSTACK, 0, STACK
        LOCFRAME XSTACK, 12, STACK
        LOCFRAME IOVERLAY, 0, STATIC
        LOCFRAME DOVERLAY, 0, STATIC
        ARGFRAME ISTACK, 0, STACK
        ARGFRAME PSTACK, 0, STACK
        ARGFRAME XSTACK, 12, STACK
        ARGFRAME IOVERLAY, 0, STATIC
        ARGFRAME DOVERLAY, 0, STATIC
        FUNCALL SampleApp_ProcessEvent, osal_msg_receive
        LOCFRAME ISTACK, 0, STACK
        LOCFRAME PSTACK, 0, STACK
        LOCFRAME XSTACK, 12, STACK
        LOCFRAME IOVERLAY, 0, STATIC
        LOCFRAME DOVERLAY, 0, STATIC
        ARGFRAME ISTACK, 0, STACK
        ARGFRAME PSTACK, 0, STACK
        ARGFRAME XSTACK, 12, STACK
        ARGFRAME IOVERLAY, 0, STATIC
        ARGFRAME DOVERLAY, 0, STATIC
        FUNCALL SampleApp_ProcessEvent, SampleApp_HandleKeys
        LOCFRAME ISTACK, 0, STACK
        LOCFRAME PSTACK, 0, STACK
        LOCFRAME XSTACK, 12, STACK
        LOCFRAME IOVERLAY, 0, STATIC
        LOCFRAME DOVERLAY, 0, STATIC
        ARGFRAME ISTACK, 0, STACK
        ARGFRAME PSTACK, 0, STACK
        ARGFRAME XSTACK, 12, STACK
        ARGFRAME IOVERLAY, 0, STATIC
        ARGFRAME DOVERLAY, 0, STATIC
        FUNCALL SampleApp_ProcessEvent, SampleApp_MessageMSGCB
        LOCFRAME ISTACK, 0, STACK
        LOCFRAME PSTACK, 0, STACK
        LOCFRAME XSTACK, 12, STACK
        LOCFRAME IOVERLAY, 0, STATIC
        LOCFRAME DOVERLAY, 0, STATIC
        ARGFRAME ISTACK, 0, STACK
        ARGFRAME PSTACK, 0, STACK
        ARGFRAME XSTACK, 12, STACK
        ARGFRAME IOVERLAY, 0, STATIC
        ARGFRAME DOVERLAY, 0, STATIC
        FUNCALL SampleApp_ProcessEvent, SampleApp_UART_EVT
        LOCFRAME ISTACK, 0, STACK
        LOCFRAME PSTACK, 0, STACK
        LOCFRAME XSTACK, 12, STACK
        LOCFRAME IOVERLAY, 0, STATIC
        LOCFRAME DOVERLAY, 0, STATIC
        ARGFRAME ISTACK, 0, STACK
        ARGFRAME PSTACK, 0, STACK
        ARGFRAME XSTACK, 12, STACK
        ARGFRAME IOVERLAY, 0, STATIC
        ARGFRAME DOVERLAY, 0, STATIC
        FUNCALL SampleApp_ProcessEvent, SampleApp_SPI
        LOCFRAME ISTACK, 0, STACK
        LOCFRAME PSTACK, 0, STACK
        LOCFRAME XSTACK, 12, STACK
        LOCFRAME IOVERLAY, 0, STATIC
        LOCFRAME DOVERLAY, 0, STATIC
        ARGFRAME ISTACK, 0, STACK
        ARGFRAME PSTACK, 0, STACK
        ARGFRAME XSTACK, 12, STACK
        ARGFRAME IOVERLAY, 0, STATIC
        ARGFRAME DOVERLAY, 0, STATIC
        FUNCALL SampleApp_ProcessEvent, Read_Battery
        LOCFRAME ISTACK, 0, STACK
        LOCFRAME PSTACK, 0, STACK
        LOCFRAME XSTACK, 12, STACK
        LOCFRAME IOVERLAY, 0, STATIC
        LOCFRAME DOVERLAY, 0, STATIC
        ARGFRAME ISTACK, 0, STACK
        ARGFRAME PSTACK, 0, STACK
        ARGFRAME XSTACK, 12, STACK
        ARGFRAME IOVERLAY, 0, STATIC
        ARGFRAME DOVERLAY, 0, STATIC
        FUNCALL SampleApp_ProcessEvent, SampleApp_SendTestMessage
        LOCFRAME ISTACK, 0, STACK
        LOCFRAME PSTACK, 0, STACK
        LOCFRAME XSTACK, 12, STACK
        LOCFRAME IOVERLAY, 0, STATIC
        LOCFRAME DOVERLAY, 0, STATIC
        ARGFRAME ISTACK, 0, STACK
        ARGFRAME PSTACK, 0, STACK
        ARGFRAME XSTACK, 12, STACK
        ARGFRAME IOVERLAY, 0, STATIC
        ARGFRAME DOVERLAY, 0, STATIC
        FUNCALL SampleApp_ProcessEvent, SampleApp_Send_VDD_Message
        LOCFRAME ISTACK, 0, STACK
        LOCFRAME PSTACK, 0, STACK
        LOCFRAME XSTACK, 12, STACK
        LOCFRAME IOVERLAY, 0, STATIC
        LOCFRAME DOVERLAY, 0, STATIC
        ARGFRAME ISTACK, 0, STACK
        ARGFRAME PSTACK, 0, STACK
        ARGFRAME XSTACK, 12, STACK
        ARGFRAME IOVERLAY, 0, STATIC
        ARGFRAME DOVERLAY, 0, STATIC
        FUNCALL SampleApp_ProcessEvent, SampleApp_Send_TestID_Message
        LOCFRAME ISTACK, 0, STACK
        LOCFRAME PSTACK, 0, STACK
        LOCFRAME XSTACK, 12, STACK
        LOCFRAME IOVERLAY, 0, STATIC
        LOCFRAME DOVERLAY, 0, STATIC
        ARGFRAME ISTACK, 0, STACK
        ARGFRAME PSTACK, 0, STACK
        ARGFRAME XSTACK, 12, STACK
        ARGFRAME IOVERLAY, 0, STATIC
        ARGFRAME DOVERLAY, 0, STATIC
        FUNCALL SampleApp_ProcessEvent, SampleApp_Send_TestBATTERY_Message
        LOCFRAME ISTACK, 0, STACK
        LOCFRAME PSTACK, 0, STACK
        LOCFRAME XSTACK, 12, STACK
        LOCFRAME IOVERLAY, 0, STATIC
        LOCFRAME DOVERLAY, 0, STATIC
        ARGFRAME ISTACK, 0, STACK
        ARGFRAME PSTACK, 0, STACK
        ARGFRAME XSTACK, 12, STACK
        ARGFRAME IOVERLAY, 0, STATIC
        ARGFRAME DOVERLAY, 0, STATIC
        MOV     A,#-0xc
        LCALL   ?BANKED_ENTER_XDATA
        CFI DPH0 load(1, XDATA, add(CFA_XSP16, literal(-1)))
        CFI DPL0 load(1, XDATA, add(CFA_XSP16, literal(-2)))
        CFI ?BRET_EXT load(1, XDATA, add(CFA_XSP16, literal(-3)))
        CFI ?RET_HIGH load(1, XDATA, add(CFA_XSP16, literal(-4)))
        CFI ?RET_LOW load(1, XDATA, add(CFA_XSP16, literal(-5)))
        CFI R7 load(1, XDATA, add(CFA_XSP16, literal(-6)))
        CFI V3 load(1, XDATA, add(CFA_XSP16, literal(-7)))
        CFI V2 load(1, XDATA, add(CFA_XSP16, literal(-8)))
        CFI V1 load(1, XDATA, add(CFA_XSP16, literal(-9)))
        CFI V0 load(1, XDATA, add(CFA_XSP16, literal(-10)))
        CFI VB load(1, XDATA, add(CFA_XSP16, literal(-11)))
        CFI R6 load(1, XDATA, add(CFA_XSP16, literal(-12)))
        CFI CFA_SP SP+0
        CFI CFA_XSP16 add(XSP16, 12)
        ; Saved register size: 12
        ; Auto size: 0
        MOV     A,R2
        MOV     R6,A
        MOV     A,R3
        MOV     R7,A
//  281   afIncomingMSGPacket_t *MSGpkt;
//  282   (void)task_id;  // Intentionally unreferenced parameter
//  283 
//  284   if ( events & SYS_EVENT_MSG )
        MOV     A,#-0x80
        ANL     A,R7
        MOV     R1,A
        CLR     A
        JNZ     ??SampleApp_ProcessEvent_0
        MOV     A,R1
??SampleApp_ProcessEvent_0:
        JNZ     $+5
        LJMP    ??SampleApp_ProcessEvent_1 & 0xFFFF
//  285   {
//  286     MSGpkt = (afIncomingMSGPacket_t *)osal_msg_receive( SampleApp_TaskID );
        ; Setup parameters for call to function osal_msg_receive
        SJMP    ??SampleApp_ProcessEvent_2
//  287     while ( MSGpkt )
//  288     {
//  289       switch ( MSGpkt->hdr.event )
//  290       {
//  291         // Received when a key is pressed
//  292         case KEY_CHANGE:
//  293           SampleApp_HandleKeys( ((keyChange_t *)MSGpkt)->state, ((keyChange_t *)MSGpkt)->keys );
//  294           break;
//  295 
//  296         // Received when a messages is received (OTA) for this endpoint
//  297         case AF_INCOMING_MSG_CMD:
//  298           SampleApp_MessageMSGCB( MSGpkt );
//  299           break;
//  300 
//  301         // Received whenever the device changes state in the network
//  302         case ZDO_STATE_CHANGE:
//  303           
//  304           HAL_TURN_ON_LED2();//改变LED1的状态
??SampleApp_ProcessEvent_3:
        CLR     0x90.2
//  305           SampleApp_NwkState = (devStates_t)(MSGpkt->hdr.status);
        MOV     DPL,?V0 + 0
        MOV     DPH,?V0 + 1
        INC     DPTR
        MOVX    A,@DPTR
        MOV     DPTR,#SampleApp_NwkState
        MOVX    @DPTR,A
//  306           if ( (SampleApp_NwkState == DEV_ZB_COORD)
//  307               || (SampleApp_NwkState == DEV_ROUTER)
//  308               || (SampleApp_NwkState == DEV_END_DEVICE) )
        XRL     A,#0x9
        JZ      ??SampleApp_ProcessEvent_4
        MOVX    A,@DPTR
        XRL     A,#0x7
        JZ      ??SampleApp_ProcessEvent_4
        MOVX    A,@DPTR
        XRL     A,#0x6
        JNZ     ??SampleApp_ProcessEvent_5
//  309           {
//  310             // Start sending the periodic message in a regular interval.
//  311             /*osal_start_timerEx( SampleApp_TaskID,
//  312                               SAMPLEAPP_SEND_PERIODIC_MSG_EVT,
//  313                               SAMPLEAPP_SEND_PERIODIC_MSG_TIMEOUT );*/
//  314             //osal_start_timerEx( SampleApp_TaskID,
//  315              //                  UART_RX_CB_EVT ,
//  316              //                 SAMPLEAPP_SEND_PERIODIC_MSG_TIMEOUT );
//  317              osal_start_timerEx( SampleApp_TaskID, 
//  318                               SAMPLEAPP_SEND_UART_MSG_EVT,
//  319                               SAMPLEAPP_SEND_UART_MSG_TIMEOUT );
??SampleApp_ProcessEvent_4:
        ; Setup parameters for call to function osal_start_timerEx
        MOV     R4,#-0x18
        MOV     R5,#0x3
        MOV     R2,#0x10
        MOV     R3,#0x0
        MOV     DPTR,#SampleApp_TaskID
        MOVX    A,@DPTR
        MOV     R1,A
        LCALL   ??osal_start_timerEx?relay
//  320           }
//  321           else
//  322           {
//  323             // Device is no longer in the network
//  324           }
//  325           break;
//  326 
//  327         default:
//  328           break;
//  329       }
//  330 
//  331       // Release the memory
//  332       osal_msg_deallocate( (uint8 *)MSGpkt );
??SampleApp_ProcessEvent_5:
        ; Setup parameters for call to function osal_msg_deallocate
        MOV     R2,?V0 + 0
        MOV     R3,?V0 + 1
        LCALL   ??osal_msg_deallocate?relay
//  333 
//  334       // Next - if one is available
//  335       MSGpkt = (afIncomingMSGPacket_t *)osal_msg_receive( SampleApp_TaskID );
        ; Setup parameters for call to function osal_msg_receive
??SampleApp_ProcessEvent_2:
        MOV     DPTR,#SampleApp_TaskID
        MOVX    A,@DPTR
        MOV     R1,A
        LCALL   ??osal_msg_receive?relay
        MOV     ?V0 + 0,R2
        MOV     ?V0 + 1,R3
        MOV     A,?V0 + 0
        JNZ     ??SampleApp_ProcessEvent_6
        MOV     A,?V0 + 1
??SampleApp_ProcessEvent_6:
        JZ      ??SampleApp_ProcessEvent_7
        MOV     DPL,?V0 + 0
        MOV     DPH,?V0 + 1
        MOVX    A,@DPTR
        LCALL   ?UC_SWITCH_SPARSE
`?<Jumptable for SampleApp_ProcessEvent>_0`:
        DATA
        DB        0
        DB        3
        DB        26
        DW        ??SampleApp_ProcessEvent_8
        DB        192
        DW        ??SampleApp_ProcessEvent_9
        DB        209
        DW        ??SampleApp_ProcessEvent_3
        DW        ??SampleApp_ProcessEvent_5
        CODE
??SampleApp_ProcessEvent_9:
        ; Setup parameters for call to function SampleApp_HandleKeys
        MOV     DPL,?V0 + 0
        MOV     DPH,?V0 + 1
        INC     DPTR
        INC     DPTR
        INC     DPTR
        MOVX    A,@DPTR
        MOV     R2,A
        MOV     DPL,?V0 + 0
        MOV     DPH,?V0 + 1
        INC     DPTR
        INC     DPTR
        MOVX    A,@DPTR
        MOV     R1,A
        LCALL   ??SampleApp_HandleKeys?relay
        SJMP    ??SampleApp_ProcessEvent_5
??SampleApp_ProcessEvent_8:
        ; Setup parameters for call to function SampleApp_MessageMSGCB
        MOV     R2,?V0 + 0
        MOV     R3,?V0 + 1
        LCALL   ??SampleApp_MessageMSGCB?relay
        SJMP    ??SampleApp_ProcessEvent_5
//  336     }
//  337 
//  338     // return unprocessed events
//  339     return (events ^ SYS_EVENT_MSG);
??SampleApp_ProcessEvent_7:
        MOV     A,R6
        MOV     R2,A
        MOV     A,#-0x80
        XRL     A,R7
??SampleApp_ProcessEvent_10:
        MOV     R3,A
        SJMP    ??SampleApp_ProcessEvent_11
//  340   }
//  341 
//  342   // Send a message out - This event is generated by a timer
//  343   //  (setup in SampleApp_Init()).
//  344   if ( events & UART_RX_CB_EVT)
??SampleApp_ProcessEvent_1:
        MOV     A,R6
        ANL     A,#0x2
        JZ      ??SampleApp_ProcessEvent_12
//  345   {
//  346 
//  347     SampleApp_UART_EVT();
        ; Setup parameters for call to function SampleApp_UART_EVT
        LCALL   ??SampleApp_UART_EVT?relay
//  348     return (events ^ UART_RX_CB_EVT);
        MOV     A,#0x2
??SampleApp_ProcessEvent_13:
        XRL     A,R6
        MOV     R2,A
        MOV     A,R7
        SJMP    ??SampleApp_ProcessEvent_10
//  349   }
//  350   
//  351   if(events&SAMPLEAPP_SEND_UART_MSG_EVT)
??SampleApp_ProcessEvent_12:
        MOV     A,R6
        ANL     A,#0x10
        JZ      ??SampleApp_ProcessEvent_14
//  352   {
//  353      SampleApp_SPI();
        ; Setup parameters for call to function SampleApp_SPI
        LCALL   ??SampleApp_SPI?relay
//  354      Read_Battery();
        ; Setup parameters for call to function Read_Battery
        LCALL   ??Read_Battery?relay
//  355      
//  356      return (events ^ SAMPLEAPP_SEND_UART_MSG_EVT);
        MOV     A,#0x10
        SJMP    ??SampleApp_ProcessEvent_13
//  357   }
//  358   
//  359     if ( events & SAMPLEAPP_SEND_PERIODIC_MSG_EVT )
//  360   {
//  361     // Send the periodic message
//  362     /*SampleApp_SendPeriodicMessage();
//  363 
//  364     // Setup to send message again in normal period (+ a little jitter)
//  365     osal_start_timerEx( SampleApp_TaskID, SAMPLEAPP_SEND_PERIODIC_MSG_EVT,
//  366         (SAMPLEAPP_SEND_PERIODIC_MSG_TIMEOUT + (osal_rand() & 0x00FF)) );
//  367 
//  368     // return unprocessed events
//  369     return (events ^ SAMPLEAPP_SEND_PERIODIC_MSG_EVT);*/
//  370   }
//  371   
//  372   if(events&SAMPLEAPP_SEND_TEST_MSG_EVT)
??SampleApp_ProcessEvent_14:
        MOV     A,R6
        ANL     A,#0x4
        JZ      ??SampleApp_ProcessEvent_15
//  373   {
//  374      SampleApp_SendTestMessage();
        ; Setup parameters for call to function SampleApp_SendTestMessage
        LCALL   ??SampleApp_SendTestMessage?relay
//  375      return (events ^ SAMPLEAPP_SEND_TEST_MSG_EVT);
        MOV     A,#0x4
        SJMP    ??SampleApp_ProcessEvent_13
//  376   }
//  377   
//  378   if(events&SAMPLEAPP_SEND_VDD_MSG_EVT)
??SampleApp_ProcessEvent_15:
        MOV     A,R6
        ANL     A,#0x8
        JZ      ??SampleApp_ProcessEvent_16
//  379   {
//  380      SampleApp_Send_VDD_Message();
        ; Setup parameters for call to function SampleApp_Send_VDD_Message
        LCALL   ??SampleApp_Send_VDD_Message?relay
//  381      return (events ^ SAMPLEAPP_SEND_VDD_MSG_EVT);
        MOV     A,#0x8
        SJMP    ??SampleApp_ProcessEvent_13
//  382   }
//  383   
//  384     if(events & SAMLPEAPP_TESTID_MSG_EVT)
??SampleApp_ProcessEvent_16:
        MOV     A,R6
        ANL     A,#0x20
        JZ      ??SampleApp_ProcessEvent_17
//  385   {
//  386      //处理测试节点请求ID事件
//  387      SampleApp_Send_TestID_Message();
        ; Setup parameters for call to function SampleApp_Send_TestID_Message
        LCALL   ??SampleApp_Send_TestID_Message?relay
//  388      return (events ^ SAMLPEAPP_TESTID_MSG_EVT);
        MOV     A,#0x20
        SJMP    ??SampleApp_ProcessEvent_13
//  389   } 
//  390   
//  391     
//  392   if(events & SAMLPEAPP_TESTBATTERY_MSG_EVT)
??SampleApp_ProcessEvent_17:
        MOV     A,R6
        ANL     A,#0x40
        JZ      ??SampleApp_ProcessEvent_18
//  393   {
//  394      //处理测试节点请求BATTERY事件
//  395      SampleApp_Send_TestBATTERY_Message();
        ; Setup parameters for call to function SampleApp_Send_TestBATTERY_Message
        LCALL   ??SampleApp_Send_TestBATTERY_Message?relay
//  396      return (events ^ SAMLPEAPP_TESTBATTERY_MSG_EVT);
        MOV     A,#0x40
        SJMP    ??SampleApp_ProcessEvent_13
//  397   } 
//  398   // Discard unknown events
//  399   return 0;
??SampleApp_ProcessEvent_18:
        MOV     R2,#0x0
        MOV     R3,#0x0
??SampleApp_ProcessEvent_11:
        LJMP    ??Subroutine54_0 & 0xFFFF
        CFI EndBlock cfiBlock1
        REQUIRE _A_P1
//  400 }
//  401 
//  402 /*********************************************************************
//  403  * Event Generation Functions
//  404  */
//  405 /*********************************************************************
//  406  * @fn      SampleApp_HandleKeys
//  407  *
//  408  * @brief   Handles all key events for this device.
//  409  *
//  410  * @param   shift - true if in shift/alt.
//  411  * @param   keys - bit field for key events. Valid entries:
//  412  *                 HAL_KEY_SW_2
//  413  *                 HAL_KEY_SW_1
//  414  *
//  415  * @return  none
//  416  */

        RSEG BANKED_CODE:CODE:NOROOT(0)
//  417 void SampleApp_HandleKeys( uint8 shift, uint8 keys )
SampleApp_HandleKeys:
        CFI Block cfiBlock2 Using cfiCommon0
        CFI Function SampleApp_HandleKeys
//  418 {
        FUNCALL SampleApp_HandleKeys, osal_mem_free
        LOCFRAME ISTACK, 0, STACK
        LOCFRAME PSTACK, 0, STACK
        LOCFRAME XSTACK, 10, STACK
        LOCFRAME IOVERLAY, 0, STATIC
        LOCFRAME DOVERLAY, 0, STATIC
        ARGFRAME ISTACK, 0, STACK
        ARGFRAME PSTACK, 0, STACK
        ARGFRAME XSTACK, 10, STACK
        ARGFRAME IOVERLAY, 0, STATIC
        ARGFRAME DOVERLAY, 0, STATIC
        FUNCALL SampleApp_HandleKeys, SampleApp_SendFlashMessage
        LOCFRAME ISTACK, 0, STACK
        LOCFRAME PSTACK, 0, STACK
        LOCFRAME XSTACK, 10, STACK
        LOCFRAME IOVERLAY, 0, STATIC
        LOCFRAME DOVERLAY, 0, STATIC
        ARGFRAME ISTACK, 0, STACK
        ARGFRAME PSTACK, 0, STACK
        ARGFRAME XSTACK, 10, STACK
        ARGFRAME IOVERLAY, 0, STATIC
        ARGFRAME DOVERLAY, 0, STATIC
        FUNCALL SampleApp_HandleKeys, aps_FindGroup
        LOCFRAME ISTACK, 0, STACK
        LOCFRAME PSTACK, 0, STACK
        LOCFRAME XSTACK, 10, STACK
        LOCFRAME IOVERLAY, 0, STATIC
        LOCFRAME DOVERLAY, 0, STATIC
        ARGFRAME ISTACK, 0, STACK
        ARGFRAME PSTACK, 0, STACK
        ARGFRAME XSTACK, 10, STACK
        ARGFRAME IOVERLAY, 0, STATIC
        ARGFRAME DOVERLAY, 0, STATIC
        FUNCALL SampleApp_HandleKeys, aps_RemoveGroup
        LOCFRAME ISTACK, 0, STACK
        LOCFRAME PSTACK, 0, STACK
        LOCFRAME XSTACK, 10, STACK
        LOCFRAME IOVERLAY, 0, STATIC
        LOCFRAME DOVERLAY, 0, STATIC
        ARGFRAME ISTACK, 0, STACK
        ARGFRAME PSTACK, 0, STACK
        ARGFRAME XSTACK, 10, STACK
        ARGFRAME IOVERLAY, 0, STATIC
        ARGFRAME DOVERLAY, 0, STATIC
        FUNCALL SampleApp_HandleKeys, aps_AddGroup
        LOCFRAME ISTACK, 0, STACK
        LOCFRAME PSTACK, 0, STACK
        LOCFRAME XSTACK, 10, STACK
        LOCFRAME IOVERLAY, 0, STATIC
        LOCFRAME DOVERLAY, 0, STATIC
        ARGFRAME ISTACK, 0, STACK
        ARGFRAME PSTACK, 0, STACK
        ARGFRAME XSTACK, 10, STACK
        ARGFRAME IOVERLAY, 0, STATIC
        ARGFRAME DOVERLAY, 0, STATIC
        MOV     A,#-0xa
        LCALL   ?BANKED_ENTER_XDATA
        CFI DPH0 load(1, XDATA, add(CFA_XSP16, literal(-1)))
        CFI DPL0 load(1, XDATA, add(CFA_XSP16, literal(-2)))
        CFI ?BRET_EXT load(1, XDATA, add(CFA_XSP16, literal(-3)))
        CFI ?RET_HIGH load(1, XDATA, add(CFA_XSP16, literal(-4)))
        CFI ?RET_LOW load(1, XDATA, add(CFA_XSP16, literal(-5)))
        CFI R7 load(1, XDATA, add(CFA_XSP16, literal(-6)))
        CFI V1 load(1, XDATA, add(CFA_XSP16, literal(-7)))
        CFI V0 load(1, XDATA, add(CFA_XSP16, literal(-8)))
        CFI VB load(1, XDATA, add(CFA_XSP16, literal(-9)))
        CFI R6 load(1, XDATA, add(CFA_XSP16, literal(-10)))
        CFI CFA_SP SP+0
        CFI CFA_XSP16 add(XSP16, 10)
        ; Saved register size: 10
        ; Auto size: 0
        MOV     A,R2
        MOV     R6,A
//  419   (void)shift;  // Intentionally unreferenced parameter
//  420   
//  421   if ( keys & HAL_KEY_SW_1 )
        MOV     C,0xE0 /* A   */.0
        JNC     ??SampleApp_HandleKeys_0
//  422   {
//  423     /* This key sends the Flash Command is sent to Group 1.
//  424      * This device will not receive the Flash Command from this
//  425      * device (even if it belongs to group 1).
//  426      */
//  427     osal_mem_free( rbuf ); 
        ; Setup parameters for call to function osal_mem_free
        LCALL   ?Subroutine17 & 0xFFFF
//  428     SampleApp_SendFlashMessage( SAMPLEAPP_FLASH_DURATION );
??CrossCallReturnLabel_31:
        ; Setup parameters for call to function SampleApp_SendFlashMessage
        MOV     R2,#-0x18
        MOV     R3,#0x3
        LCALL   ??SampleApp_SendFlashMessage?relay
//  429   }
//  430 
//  431   if ( keys & HAL_KEY_SW_2 )
??SampleApp_HandleKeys_0:
        MOV     A,R6
        MOV     C,0xE0 /* A   */.1
        JNC     ??SampleApp_HandleKeys_1
//  432   {
//  433     /* The Flashr Command is sent to Group 1.
//  434      * This key toggles this device in and out of group 1.
//  435      * If this device doesn't belong to group 1, this application
//  436      * will not receive the Flash command sent to group 1.
//  437      */
//  438     aps_Group_t *grp;
//  439     grp = aps_FindGroup( SAMPLEAPP_ENDPOINT, SAMPLEAPP_FLASH_GROUP );
//  440     if ( grp )
        ; Setup parameters for call to function aps_FindGroup
        MOV     R2,#0x1
        MOV     R3,#0x0
        MOV     R1,#0x14
        LCALL   ??aps_FindGroup?relay
        MOV     A,R2
        JNZ     ??SampleApp_HandleKeys_2
        MOV     A,R3
??SampleApp_HandleKeys_2:
        JZ      ??SampleApp_HandleKeys_3
//  441     {
//  442       // Remove from the group
//  443       aps_RemoveGroup( SAMPLEAPP_ENDPOINT, SAMPLEAPP_FLASH_GROUP );
        ; Setup parameters for call to function aps_RemoveGroup
        MOV     R2,#0x1
        MOV     R3,#0x0
        MOV     R1,#0x14
        LCALL   ??aps_RemoveGroup?relay
        SJMP    ??SampleApp_HandleKeys_1
//  444     }
//  445     else
//  446     {
//  447       // Add to the flash group
//  448       aps_AddGroup( SAMPLEAPP_ENDPOINT, &SampleApp_Group );
??SampleApp_HandleKeys_3:
        ; Setup parameters for call to function aps_AddGroup
        MOV     R2,#(SampleApp_Group & 0xff)
        MOV     R3,#((SampleApp_Group >> 8) & 0xff)
        MOV     R1,#0x14
        LCALL   ??aps_AddGroup?relay
//  449     }
//  450   }
//  451 }
??SampleApp_HandleKeys_1:
        LJMP    ??Subroutine61_0 & 0xFFFF
        CFI EndBlock cfiBlock2
//  452 
//  453 /*********************************************************************
//  454  * LOCAL FUNCTIONS
//  455  */
//  456 
//  457 /*********************************************************************
//  458  * @fn      SampleApp_MessageMSGCB
//  459  *
//  460  * @brief   Data message processor callback.  This function processes
//  461  *          any incoming data - probably from other devices.  So, based
//  462  *          on cluster ID, perform the intended action.
//  463  *
//  464  * @param   none
//  465  *
//  466  * @return  none
//  467  */

        RSEG BANKED_CODE:CODE:NOROOT(0)
//  468 void SampleApp_MessageMSGCB( afIncomingMSGPacket_t *pkt )
SampleApp_MessageMSGCB:
        CFI Block cfiBlock3 Using cfiCommon0
        CFI Function SampleApp_MessageMSGCB
//  469 {
        FUNCALL SampleApp_MessageMSGCB, osal_nv_item_init
        LOCFRAME ISTACK, 0, STACK
        LOCFRAME PSTACK, 0, STACK
        LOCFRAME XSTACK, 19, STACK
        LOCFRAME IOVERLAY, 0, STATIC
        LOCFRAME DOVERLAY, 0, STATIC
        ARGFRAME ISTACK, 0, STACK
        ARGFRAME PSTACK, 0, STACK
        ARGFRAME XSTACK, 19, STACK
        ARGFRAME IOVERLAY, 0, STATIC
        ARGFRAME DOVERLAY, 0, STATIC
        FUNCALL SampleApp_MessageMSGCB, osal_nv_read
        LOCFRAME ISTACK, 0, STACK
        LOCFRAME PSTACK, 0, STACK
        LOCFRAME XSTACK, 21, STACK
        LOCFRAME IOVERLAY, 0, STATIC
        LOCFRAME DOVERLAY, 0, STATIC
        ARGFRAME ISTACK, 0, STACK
        ARGFRAME PSTACK, 0, STACK
        ARGFRAME XSTACK, 21, STACK
        ARGFRAME IOVERLAY, 0, STATIC
        ARGFRAME DOVERLAY, 0, STATIC
        FUNCALL SampleApp_MessageMSGCB, HalUARTWrite
        LOCFRAME ISTACK, 0, STACK
        LOCFRAME PSTACK, 0, STACK
        LOCFRAME XSTACK, 17, STACK
        LOCFRAME IOVERLAY, 0, STATIC
        LOCFRAME DOVERLAY, 0, STATIC
        ARGFRAME ISTACK, 0, STACK
        ARGFRAME PSTACK, 0, STACK
        ARGFRAME XSTACK, 17, STACK
        ARGFRAME IOVERLAY, 0, STATIC
        ARGFRAME DOVERLAY, 0, STATIC
        FUNCALL SampleApp_MessageMSGCB, osal_nv_item_init
        LOCFRAME ISTACK, 0, STACK
        LOCFRAME PSTACK, 0, STACK
        LOCFRAME XSTACK, 19, STACK
        LOCFRAME IOVERLAY, 0, STATIC
        LOCFRAME DOVERLAY, 0, STATIC
        ARGFRAME ISTACK, 0, STACK
        ARGFRAME PSTACK, 0, STACK
        ARGFRAME XSTACK, 19, STACK
        ARGFRAME IOVERLAY, 0, STATIC
        ARGFRAME DOVERLAY, 0, STATIC
        FUNCALL SampleApp_MessageMSGCB, osal_nv_read
        LOCFRAME ISTACK, 0, STACK
        LOCFRAME PSTACK, 0, STACK
        LOCFRAME XSTACK, 21, STACK
        LOCFRAME IOVERLAY, 0, STATIC
        LOCFRAME DOVERLAY, 0, STATIC
        ARGFRAME ISTACK, 0, STACK
        ARGFRAME PSTACK, 0, STACK
        ARGFRAME XSTACK, 21, STACK
        ARGFRAME IOVERLAY, 0, STATIC
        ARGFRAME DOVERLAY, 0, STATIC
        FUNCALL SampleApp_MessageMSGCB, HalUARTWrite
        LOCFRAME ISTACK, 0, STACK
        LOCFRAME PSTACK, 0, STACK
        LOCFRAME XSTACK, 17, STACK
        LOCFRAME IOVERLAY, 0, STATIC
        LOCFRAME DOVERLAY, 0, STATIC
        ARGFRAME ISTACK, 0, STACK
        ARGFRAME PSTACK, 0, STACK
        ARGFRAME XSTACK, 17, STACK
        ARGFRAME IOVERLAY, 0, STATIC
        ARGFRAME DOVERLAY, 0, STATIC
        FUNCALL SampleApp_MessageMSGCB, HalUARTWrite
        LOCFRAME ISTACK, 0, STACK
        LOCFRAME PSTACK, 0, STACK
        LOCFRAME XSTACK, 17, STACK
        LOCFRAME IOVERLAY, 0, STATIC
        LOCFRAME DOVERLAY, 0, STATIC
        ARGFRAME ISTACK, 0, STACK
        ARGFRAME PSTACK, 0, STACK
        ARGFRAME XSTACK, 17, STACK
        ARGFRAME IOVERLAY, 0, STATIC
        ARGFRAME DOVERLAY, 0, STATIC
        FUNCALL SampleApp_MessageMSGCB, osal_rand
        LOCFRAME ISTACK, 0, STACK
        LOCFRAME PSTACK, 0, STACK
        LOCFRAME XSTACK, 17, STACK
        LOCFRAME IOVERLAY, 0, STATIC
        LOCFRAME DOVERLAY, 0, STATIC
        ARGFRAME ISTACK, 0, STACK
        ARGFRAME PSTACK, 0, STACK
        ARGFRAME XSTACK, 17, STACK
        ARGFRAME IOVERLAY, 0, STATIC
        ARGFRAME DOVERLAY, 0, STATIC
        FUNCALL SampleApp_MessageMSGCB, osal_start_timerEx
        LOCFRAME ISTACK, 0, STACK
        LOCFRAME PSTACK, 0, STACK
        LOCFRAME XSTACK, 17, STACK
        LOCFRAME IOVERLAY, 0, STATIC
        LOCFRAME DOVERLAY, 0, STATIC
        ARGFRAME ISTACK, 0, STACK
        ARGFRAME PSTACK, 0, STACK
        ARGFRAME XSTACK, 17, STACK
        ARGFRAME IOVERLAY, 0, STATIC
        ARGFRAME DOVERLAY, 0, STATIC
        FUNCALL SampleApp_MessageMSGCB, HalUARTWrite
        LOCFRAME ISTACK, 0, STACK
        LOCFRAME PSTACK, 0, STACK
        LOCFRAME XSTACK, 17, STACK
        LOCFRAME IOVERLAY, 0, STATIC
        LOCFRAME DOVERLAY, 0, STATIC
        ARGFRAME ISTACK, 0, STACK
        ARGFRAME PSTACK, 0, STACK
        ARGFRAME XSTACK, 17, STACK
        ARGFRAME IOVERLAY, 0, STATIC
        ARGFRAME DOVERLAY, 0, STATIC
        FUNCALL SampleApp_MessageMSGCB, osal_rand
        LOCFRAME ISTACK, 0, STACK
        LOCFRAME PSTACK, 0, STACK
        LOCFRAME XSTACK, 17, STACK
        LOCFRAME IOVERLAY, 0, STATIC
        LOCFRAME DOVERLAY, 0, STATIC
        ARGFRAME ISTACK, 0, STACK
        ARGFRAME PSTACK, 0, STACK
        ARGFRAME XSTACK, 17, STACK
        ARGFRAME IOVERLAY, 0, STATIC
        ARGFRAME DOVERLAY, 0, STATIC
        FUNCALL SampleApp_MessageMSGCB, osal_start_timerEx
        LOCFRAME ISTACK, 0, STACK
        LOCFRAME PSTACK, 0, STACK
        LOCFRAME XSTACK, 17, STACK
        LOCFRAME IOVERLAY, 0, STATIC
        LOCFRAME DOVERLAY, 0, STATIC
        ARGFRAME ISTACK, 0, STACK
        ARGFRAME PSTACK, 0, STACK
        ARGFRAME XSTACK, 17, STACK
        ARGFRAME IOVERLAY, 0, STATIC
        ARGFRAME DOVERLAY, 0, STATIC
        FUNCALL SampleApp_MessageMSGCB, osal_rand
        LOCFRAME ISTACK, 0, STACK
        LOCFRAME PSTACK, 0, STACK
        LOCFRAME XSTACK, 17, STACK
        LOCFRAME IOVERLAY, 0, STATIC
        LOCFRAME DOVERLAY, 0, STATIC
        ARGFRAME ISTACK, 0, STACK
        ARGFRAME PSTACK, 0, STACK
        ARGFRAME XSTACK, 17, STACK
        ARGFRAME IOVERLAY, 0, STATIC
        ARGFRAME DOVERLAY, 0, STATIC
        FUNCALL SampleApp_MessageMSGCB, osal_start_timerEx
        LOCFRAME ISTACK, 0, STACK
        LOCFRAME PSTACK, 0, STACK
        LOCFRAME XSTACK, 17, STACK
        LOCFRAME IOVERLAY, 0, STATIC
        LOCFRAME DOVERLAY, 0, STATIC
        ARGFRAME ISTACK, 0, STACK
        ARGFRAME PSTACK, 0, STACK
        ARGFRAME XSTACK, 17, STACK
        ARGFRAME IOVERLAY, 0, STATIC
        ARGFRAME DOVERLAY, 0, STATIC
        FUNCALL SampleApp_MessageMSGCB, osal_rand
        LOCFRAME ISTACK, 0, STACK
        LOCFRAME PSTACK, 0, STACK
        LOCFRAME XSTACK, 17, STACK
        LOCFRAME IOVERLAY, 0, STATIC
        LOCFRAME DOVERLAY, 0, STATIC
        ARGFRAME ISTACK, 0, STACK
        ARGFRAME PSTACK, 0, STACK
        ARGFRAME XSTACK, 17, STACK
        ARGFRAME IOVERLAY, 0, STATIC
        ARGFRAME DOVERLAY, 0, STATIC
        FUNCALL SampleApp_MessageMSGCB, osal_start_timerEx
        LOCFRAME ISTACK, 0, STACK
        LOCFRAME PSTACK, 0, STACK
        LOCFRAME XSTACK, 17, STACK
        LOCFRAME IOVERLAY, 0, STATIC
        LOCFRAME DOVERLAY, 0, STATIC
        ARGFRAME ISTACK, 0, STACK
        ARGFRAME PSTACK, 0, STACK
        ARGFRAME XSTACK, 17, STACK
        ARGFRAME IOVERLAY, 0, STATIC
        ARGFRAME DOVERLAY, 0, STATIC
        MOV     A,#-0xa
        LCALL   ?BANKED_ENTER_XDATA
        CFI DPH0 load(1, XDATA, add(CFA_XSP16, literal(-1)))
        CFI DPL0 load(1, XDATA, add(CFA_XSP16, literal(-2)))
        CFI ?BRET_EXT load(1, XDATA, add(CFA_XSP16, literal(-3)))
        CFI ?RET_HIGH load(1, XDATA, add(CFA_XSP16, literal(-4)))
        CFI ?RET_LOW load(1, XDATA, add(CFA_XSP16, literal(-5)))
        CFI R7 load(1, XDATA, add(CFA_XSP16, literal(-6)))
        CFI V1 load(1, XDATA, add(CFA_XSP16, literal(-7)))
        CFI V0 load(1, XDATA, add(CFA_XSP16, literal(-8)))
        CFI VB load(1, XDATA, add(CFA_XSP16, literal(-9)))
        CFI R6 load(1, XDATA, add(CFA_XSP16, literal(-10)))
        CFI CFA_SP SP+0
        CFI CFA_XSP16 add(XSP16, 10)
        ; Saved register size: 10
        ; Auto size: 7
        MOV     A,#-0x7
        LCALL   ?ALLOC_XSTACK8
        CFI CFA_XSP16 add(XSP16, 17)
//  470   //uint8 shortadd1[1];
//  471   uint8 *pointer1;  
//  472   uint8 shortadd[5];
//  473   uint8 checktest;
//  474   uint8 u16NewPaind;
//  475   switch ( pkt->clusterId )
        MOV     A,R2
        ADD     A,#0x21
        MOV     R0,A
        MOV     A,R3
        ADDC    A,#0x0
        MOV     R1,A
        MOV     A,R0
        MOV     R6,A
        MOV     A,R1
        MOV     R7,A
        MOV     DPL,R2
        MOV     DPH,R3
        INC     DPTR
        INC     DPTR
        INC     DPTR
        INC     DPTR
        MOVX    A,@DPTR
        MOV     ?V0 + 0,A
        INC     DPTR
        MOVX    A,@DPTR
        MOV     ?V0 + 1,A
        MOV     R0,#?V0 + 0
        LCALL   ?US_SWITCH_DENSE
`?<Jumptable for SampleApp_MessageMSGCB>_0`:
        DATA
        DW        1
        DB        9
        DW        ??SampleApp_MessageMSGCB_0
        DW        ??SampleApp_MessageMSGCB_1
        DW        ??SampleApp_MessageMSGCB_2
        DW        ??SampleApp_MessageMSGCB_3
        DW        ??SampleApp_MessageMSGCB_4
        DW        ??SampleApp_MessageMSGCB_5
        DW        ??SampleApp_MessageMSGCB_6
        DW        ??SampleApp_MessageMSGCB_7
        DW        ??SampleApp_MessageMSGCB_3
        DW        ??SampleApp_MessageMSGCB_8
        DW        ??SampleApp_MessageMSGCB_5
        CODE
//  476   {
//  477     case SAMPLEAPP_PERIODIC_CLUSTERID:   //这个是周期信息用于测试，主要是设备ID
//  478       
//  479       shortadd[0]=pkt->cmd.Data[0];
??SampleApp_MessageMSGCB_1:
        LCALL   ?Subroutine43 & 0xFFFF
??CrossCallReturnLabel_89:
        MOVX    A,@DPTR
        PUSH    A
        CFI CFA_SP SP+-1
        MOV     A,#0x2
        LCALL   ?XSTACK_DISP0_8
        POP     A
        CFI CFA_SP SP+0
        LCALL   ?Subroutine7 & 0xFFFF
//  480       shortadd[1]=pkt->cmd.Data[1];
??CrossCallReturnLabel_11:
        MOVX    A,@DPTR
        PUSH    A
        CFI CFA_SP SP+-1
        MOV     A,#0x3
        LCALL   ?XSTACK_DISP0_8
        POP     A
        CFI CFA_SP SP+0
        LCALL   ?Subroutine7 & 0xFFFF
//  481       shortadd[2]=pkt->cmd.Data[2];
??CrossCallReturnLabel_12:
        INC     DPTR
        MOVX    A,@DPTR
        PUSH    A
        CFI CFA_SP SP+-1
        MOV     A,#0x4
        LCALL   ?XSTACK_DISP0_8
        POP     A
        CFI CFA_SP SP+0
        LCALL   ?Subroutine5 & 0xFFFF
//  482       shortadd[3]=pkt->cmd.Data[3];
??CrossCallReturnLabel_7:
        MOVX    A,@DPTR
        PUSH    A
        CFI CFA_SP SP+-1
        MOV     A,#0x5
        LCALL   ?XSTACK_DISP0_8
        POP     A
        CFI CFA_SP SP+0
        LCALL   ?Subroutine5 & 0xFFFF
//  483       shortadd[4]=pkt->cmd.Data[4];
??CrossCallReturnLabel_8:
        INC     DPTR
        MOVX    A,@DPTR
        PUSH    A
        CFI CFA_SP SP+-1
        MOV     A,#0x6
        LCALL   ?XSTACK_DISP0_8
        POP     A
        CFI CFA_SP SP+0
        MOVX    @DPTR,A
//  484       HAL_TOGGLE_LED1();   
        MOV     C,0x90.1
        JNC     ??SampleApp_MessageMSGCB_9
        CLR     0x90.1
        SJMP    ??SampleApp_MessageMSGCB_10
??SampleApp_MessageMSGCB_9:
        SETB    0x90.1
//  485       
//  486     //这里在协调器端最终决定是否启用TEST功能  
//  487     if ( osal_nv_item_init( ZCD_NV_TEST,8,&checktest ) == ZSUCCESS )  
??SampleApp_MessageMSGCB_10:
        ; Setup parameters for call to function osal_nv_item_init
        MOV     A,#0x1
        LCALL   ?XSTACK_DISP0_8
        MOV     ?V0 + 0,DPL
        MOV     ?V0 + 1,DPH
        MOV     R0,#?V0 + 0
        LCALL   ?PUSH_XSTACK_I_TWO
        CFI CFA_XSP16 add(XSP16, 19)
        MOV     R4,#0x8
        MOV     R5,#0x0
        MOV     R2,#-0x7a
        LCALL   ??Subroutine57_0 & 0xFFFF
??CrossCallReturnLabel_99:
        LCALL   ?DEALLOC_XSTACK8
        CFI CFA_XSP16 add(XSP16, 17)
        MOV     A,R1
        JZ      $+5
        LJMP    ??SampleApp_MessageMSGCB_0 & 0xFFFF
//  488       {
//  489         osal_nv_read(ZCD_NV_TEST,0,1,&checktest);
        ; Setup parameters for call to function osal_nv_read
        MOV     R0,#?V0 + 0
        LCALL   ?PUSH_XSTACK_I_TWO
        CFI CFA_XSP16 add(XSP16, 19)
        MOV     ?V0 + 0,#0x1
        MOV     ?V0 + 1,#0x0
        MOV     R0,#?V0 + 0
        LCALL   ?PUSH_XSTACK_I_TWO
        CFI CFA_XSP16 add(XSP16, 21)
        MOV     R4,#0x0
        MOV     R5,#0x0
        MOV     R2,#-0x7a
        MOV     R3,#0x4
        LCALL   ??osal_nv_read?relay
        MOV     A,#0x4
        LCALL   ?DEALLOC_XSTACK8
        CFI CFA_XSP16 add(XSP16, 17)
//  490         if(checktest==1)//如果读取的是1则启用TEST功能，如果是0则禁用TEST功能
        MOV     A,#0x1
        LCALL   ?XSTACK_DISP0_8
        MOVX    A,@DPTR
        XRL     A,#0x1
        JZ      $+5
        LJMP    ??SampleApp_MessageMSGCB_0 & 0xFFFF
//  491         {
//  492           HalUARTWrite(0,&shortadd[0],5);
        ; Setup parameters for call to function HalUARTWrite
        MOV     R4,#0x5
        MOV     R5,#0x0
        MOV     A,#0x2
        LCALL   ?XSTACK_DISP0_8
??SampleApp_MessageMSGCB_11:
        MOV     R2,DPL
        MOV     R3,DPH
??SampleApp_MessageMSGCB_12:
        MOV     R1,#0x0
        LCALL   ??HalUARTWrite?relay
        LJMP    ??SampleApp_MessageMSGCB_0 & 0xFFFF
//  493         }
//  494       } 
//  495       
//  496       break;
//  497 
//  498     case SAMPLEAPP_FLASH_CLUSTERID:      
//  499       //shortadd1[0]='\n';       
//  500       
//  501     if ( osal_nv_item_init( ZCD_NV_IDSET,1,&u16NewPaind ) == ZSUCCESS )  
??SampleApp_MessageMSGCB_2:
        ; Setup parameters for call to function osal_nv_item_init
        MOV     DPL,?XSP + 0
        MOV     DPH,?XSP + 1
        MOV     ?V0 + 0,DPL
        MOV     ?V0 + 1,DPH
        MOV     R0,#?V0 + 0
        LCALL   ?PUSH_XSTACK_I_TWO
        CFI CFA_XSP16 add(XSP16, 19)
        LCALL   ?Subroutine24 & 0xFFFF
??CrossCallReturnLabel_96:
        LCALL   ?DEALLOC_XSTACK8
        CFI CFA_XSP16 add(XSP16, 17)
        MOV     A,R1
        JNZ     ??SampleApp_MessageMSGCB_13
//  502       {
//  503          osal_nv_read(ZCD_NV_IDSET,0,1,&u16NewPaind);
        ; Setup parameters for call to function osal_nv_read
        MOV     R0,#?V0 + 0
        LCALL   ?PUSH_XSTACK_I_TWO
        CFI CFA_XSP16 add(XSP16, 19)
        MOV     ?V0 + 0,#0x1
        MOV     ?V0 + 1,#0x0
        MOV     R0,#?V0 + 0
        LCALL   ?PUSH_XSTACK_I_TWO
        CFI CFA_XSP16 add(XSP16, 21)
        MOV     R4,#0x0
        MOV     R5,#0x0
        MOV     R2,#-0x79
        MOV     R3,#0x4
        LCALL   ??osal_nv_read?relay
        MOV     A,#0x4
        LCALL   ?DEALLOC_XSTACK8
        CFI CFA_XSP16 add(XSP16, 17)
//  504       }  
//  505       if(u16NewPaind==1)//带ID
??SampleApp_MessageMSGCB_13:
        MOV     DPL,?XSP + 0
        MOV     DPH,?XSP + 1
        MOVX    A,@DPTR
        XRL     A,#0x1
        JNZ     ??SampleApp_MessageMSGCB_14
//  506       {
//  507         pointer1=&pkt->cmd.Data[1];  //接收数据指针,指向数据
//  508         HalUARTWrite(0,pointer1,pkt->cmd.Data[0]);//cmd.Data[0]是数据的大小
??SampleApp_MessageMSGCB_5:
        LCALL   ?Subroutine15 & 0xFFFF
//  509        // HalUARTWrite(0,&shortadd1[0],1);//这个用来显示的换行
//  510       }
??CrossCallReturnLabel_27:
        MOV     R4,A
        MOV     R5,#0x0
        INC     DPTR
        SJMP    ??SampleApp_MessageMSGCB_11
//  511       else
//  512       {
//  513         pointer1=&pkt->cmd.Data[9];  //接收数据指针,指向数据
//  514         HalUARTWrite(SERIAL_APP_PORT,pointer1,pkt->cmd.Data[0]-8);//cmd.Data[0]是数据的大小
??SampleApp_MessageMSGCB_14:
        LCALL   ?Subroutine15 & 0xFFFF
//  515        // while(Delay--);
//  516        // HalUARTWrite(SERIAL_APP_PORT,&shortadd1[0],1);//这个用来显示的换行
//  517       }
??CrossCallReturnLabel_28:
        MOV     R0,A
        MOV     A,#-0x8
        ADD     A,R0
        MOV     R4,A
        MOV     A,#-0x1
        ADDC    A,#0x0
        MOV     R5,A
        MOV     A,DPL
        ADD     A,#0x9
        MOV     R2,A
        MOV     A,DPH
        ADDC    A,#0x0
??SampleApp_MessageMSGCB_15:
        MOV     R3,A
        SJMP    ??SampleApp_MessageMSGCB_12
//  518       break;
//  519     
//  520       case SAMPLEAPP_BROADCAST_CLUSTERID:
//  521           osal_start_timerEx( SampleApp_TaskID, SAMPLEAPP_SEND_TEST_MSG_EVT,
//  522         ((osal_rand() & 0x00FF)) );
??SampleApp_MessageMSGCB_4:
        ; Setup parameters for call to function osal_rand
        LCALL   ?Subroutine26 & 0xFFFF
??CrossCallReturnLabel_60:
        MOV     R2,#0x4
        SJMP    ??SampleApp_MessageMSGCB_16
//  523       break;
//  524       
//  525       case SAMPLEAPP_TEST_CLUSTERID:
//  526       HalUARTWrite(SERIAL_APP_PORT,&pkt->cmd.Data[0],4);
??SampleApp_MessageMSGCB_3:
        ; Setup parameters for call to function HalUARTWrite
        MOV     R4,#0x4
        MOV     R5,#0x0
        MOV     DPL,R6
        MOV     DPH,R7
        MOVX    A,@DPTR
        MOV     R2,A
        INC     DPTR
        MOVX    A,@DPTR
        SJMP    ??SampleApp_MessageMSGCB_15
//  527       break;
//  528       
//  529       //向协调器发送电压值
//  530       case SAMPLEAPP_BROADCAST_VDD_CLUSTERID:
//  531                 osal_start_timerEx( SampleApp_TaskID, SAMPLEAPP_SEND_VDD_MSG_EVT,
//  532         ((osal_rand() & 0x00FF)) );
??SampleApp_MessageMSGCB_6:
        ; Setup parameters for call to function osal_rand
        LCALL   ?Subroutine26 & 0xFFFF
??CrossCallReturnLabel_61:
        MOV     R2,#0x8
        SJMP    ??SampleApp_MessageMSGCB_16
//  533       break;  
//  534       
//  535       //协调器将电压值写入PC  
//  536       case SAMPLEAPP_VDD_CLUSTERID:
//  537       HalUARTWrite(SERIAL_APP_PORT,&pkt->cmd.Data[1],pkt->cmd.Data[0]);
//  538       break;  
//  539 
//  540       case SAMPLEAPP_TEST_ID_CLUSTERID:
//  541         
//  542         //组装测试节点的短地址
//  543         short_test=(uint16)(pkt->cmd.Data[0]);
//  544         short_test=short_test<<8;
??SampleApp_MessageMSGCB_7:
        LCALL   ?Subroutine1 & 0xFFFF
//  545         short_test=short_test|pkt->cmd.Data[1];
//  546        
//  547          osal_start_timerEx( SampleApp_TaskID, SAMLPEAPP_TESTID_MSG_EVT,
//  548         ((osal_rand() & 0x00FF)) );        
??CrossCallReturnLabel_0:
        MOV     R2,#0x20
        SJMP    ??SampleApp_MessageMSGCB_16
//  549       break;
//  550       
//  551      case SAMPLEAPP_TEST_ID_BACK_CLUSTERID://回显ID，不带换行符等任何其他的东西
//  552        
//  553        HalUARTWrite(0,&pkt->cmd.Data[0],4);
//  554      break;
//  555      
//  556      //接收到测试节点的BATTERT请求
//  557     case SAMPLEAPP_TEST_BATTERY_CLUSTERID:
//  558       
//  559               //组装测试节点的短地址
//  560         short_test=(uint16)(pkt->cmd.Data[0]);
//  561         short_test=short_test<<8;
??SampleApp_MessageMSGCB_8:
        LCALL   ?Subroutine1 & 0xFFFF
//  562         short_test=short_test|pkt->cmd.Data[1];
//  563        
//  564          osal_start_timerEx( SampleApp_TaskID, SAMLPEAPP_TESTBATTERY_MSG_EVT,
//  565         ((osal_rand() & 0x00FF)) );   
//  566     break;
//  567     
//  568     //测试节点收到回应
//  569     case SAMPLEAPP_TEST_BATTERY_BACK_CLUSTERID:
//  570       
//  571     HalUARTWrite(0,&pkt->cmd.Data[1],pkt->cmd.Data[0]);
//  572     break;      
//  573   }
??CrossCallReturnLabel_1:
        MOV     R2,#0x40
??SampleApp_MessageMSGCB_16:
        MOV     R3,#0x0
        MOV     DPTR,#SampleApp_TaskID
        MOVX    A,@DPTR
        MOV     R1,A
        LCALL   ??osal_start_timerEx?relay
//  574 }
??SampleApp_MessageMSGCB_0:
        MOV     A,#0x7
        LJMP    ??Subroutine60_0 & 0xFFFF
        CFI EndBlock cfiBlock3
        REQUIRE _A_P1

        RSEG BANKED_CODE:CODE:NOROOT(0)
?Subroutine26:
        CFI Block cfiCond4 Using cfiCommon0
        CFI NoFunction
        CFI Conditional ??CrossCallReturnLabel_60
        CFI R6 load(1, XDATA, add(CFA_XSP16, literal(-10)))
        CFI VB load(1, XDATA, add(CFA_XSP16, literal(-9)))
        CFI V0 load(1, XDATA, add(CFA_XSP16, literal(-8)))
        CFI V1 load(1, XDATA, add(CFA_XSP16, literal(-7)))
        CFI R7 load(1, XDATA, add(CFA_XSP16, literal(-6)))
        CFI ?RET_LOW load(1, XDATA, add(CFA_XSP16, literal(-5)))
        CFI ?RET_HIGH load(1, XDATA, add(CFA_XSP16, literal(-4)))
        CFI ?BRET_EXT load(1, XDATA, add(CFA_XSP16, literal(-3)))
        CFI DPL0 load(1, XDATA, add(CFA_XSP16, literal(-2)))
        CFI DPH0 load(1, XDATA, add(CFA_XSP16, literal(-1)))
        CFI CFA_SP SP+0
        CFI CFA_XSP16 add(XSP16, 17)
        CFI Block cfiCond5 Using cfiCommon0
        CFI (cfiCond5) NoFunction
        CFI (cfiCond5) Conditional ??CrossCallReturnLabel_61
        CFI (cfiCond5) R6 load(1, XDATA, add(CFA_XSP16, literal(-10)))
        CFI (cfiCond5) VB load(1, XDATA, add(CFA_XSP16, literal(-9)))
        CFI (cfiCond5) V0 load(1, XDATA, add(CFA_XSP16, literal(-8)))
        CFI (cfiCond5) V1 load(1, XDATA, add(CFA_XSP16, literal(-7)))
        CFI (cfiCond5) R7 load(1, XDATA, add(CFA_XSP16, literal(-6)))
        CFI (cfiCond5) ?RET_LOW load(1, XDATA, add(CFA_XSP16, literal(-5)))
        CFI (cfiCond5) ?RET_HIGH load(1, XDATA, add(CFA_XSP16, literal(-4)))
        CFI (cfiCond5) ?BRET_EXT load(1, XDATA, add(CFA_XSP16, literal(-3)))
        CFI (cfiCond5) DPL0 load(1, XDATA, add(CFA_XSP16, literal(-2)))
        CFI (cfiCond5) DPH0 load(1, XDATA, add(CFA_XSP16, literal(-1)))
        CFI (cfiCond5) CFA_SP SP+0
        CFI (cfiCond5) CFA_XSP16 add(XSP16, 17)
        CFI Block cfiPicker6 Using cfiCommon1
        CFI (cfiPicker6) NoFunction
        CFI (cfiPicker6) Picker
        LCALL   ?Subroutine41 & 0xFFFF
??CrossCallReturnLabel_85:
        RET
        CFI EndBlock cfiCond4
        CFI EndBlock cfiCond5
        CFI EndBlock cfiPicker6

        RSEG BANKED_CODE:CODE:NOROOT(0)
?Subroutine15:
        CFI Block cfiCond7 Using cfiCommon0
        CFI NoFunction
        CFI Conditional ??CrossCallReturnLabel_27
        CFI R6 load(1, XDATA, add(CFA_XSP16, literal(-10)))
        CFI VB load(1, XDATA, add(CFA_XSP16, literal(-9)))
        CFI V0 load(1, XDATA, add(CFA_XSP16, literal(-8)))
        CFI V1 load(1, XDATA, add(CFA_XSP16, literal(-7)))
        CFI R7 load(1, XDATA, add(CFA_XSP16, literal(-6)))
        CFI ?RET_LOW load(1, XDATA, add(CFA_XSP16, literal(-5)))
        CFI ?RET_HIGH load(1, XDATA, add(CFA_XSP16, literal(-4)))
        CFI ?BRET_EXT load(1, XDATA, add(CFA_XSP16, literal(-3)))
        CFI DPL0 load(1, XDATA, add(CFA_XSP16, literal(-2)))
        CFI DPH0 load(1, XDATA, add(CFA_XSP16, literal(-1)))
        CFI CFA_SP SP+0
        CFI CFA_XSP16 add(XSP16, 17)
        CFI Block cfiCond8 Using cfiCommon0
        CFI (cfiCond8) NoFunction
        CFI (cfiCond8) Conditional ??CrossCallReturnLabel_28
        CFI (cfiCond8) R6 load(1, XDATA, add(CFA_XSP16, literal(-10)))
        CFI (cfiCond8) VB load(1, XDATA, add(CFA_XSP16, literal(-9)))
        CFI (cfiCond8) V0 load(1, XDATA, add(CFA_XSP16, literal(-8)))
        CFI (cfiCond8) V1 load(1, XDATA, add(CFA_XSP16, literal(-7)))
        CFI (cfiCond8) R7 load(1, XDATA, add(CFA_XSP16, literal(-6)))
        CFI (cfiCond8) ?RET_LOW load(1, XDATA, add(CFA_XSP16, literal(-5)))
        CFI (cfiCond8) ?RET_HIGH load(1, XDATA, add(CFA_XSP16, literal(-4)))
        CFI (cfiCond8) ?BRET_EXT load(1, XDATA, add(CFA_XSP16, literal(-3)))
        CFI (cfiCond8) DPL0 load(1, XDATA, add(CFA_XSP16, literal(-2)))
        CFI (cfiCond8) DPH0 load(1, XDATA, add(CFA_XSP16, literal(-1)))
        CFI (cfiCond8) CFA_SP SP+0
        CFI (cfiCond8) CFA_XSP16 add(XSP16, 17)
        CFI Block cfiPicker9 Using cfiCommon1
        CFI (cfiPicker9) NoFunction
        CFI (cfiPicker9) Picker
        LCALL   ?Subroutine38 & 0xFFFF
??CrossCallReturnLabel_82:
        RET
        CFI EndBlock cfiCond7
        CFI EndBlock cfiCond8
        CFI EndBlock cfiPicker9

        RSEG BANKED_CODE:CODE:NOROOT(0)
?Subroutine38:
        CFI Block cfiCond10 Using cfiCommon0
        CFI NoFunction
        CFI Conditional ??CrossCallReturnLabel_82, ??CrossCallReturnLabel_27
        CFI R6 load(1, XDATA, add(CFA_XSP16, literal(-10)))
        CFI VB load(1, XDATA, add(CFA_XSP16, literal(-9)))
        CFI V0 load(1, XDATA, add(CFA_XSP16, literal(-8)))
        CFI V1 load(1, XDATA, add(CFA_XSP16, literal(-7)))
        CFI R7 load(1, XDATA, add(CFA_XSP16, literal(-6)))
        CFI ?RET_LOW load(1, XDATA, add(CFA_XSP16, literal(-5)))
        CFI ?RET_HIGH load(1, XDATA, add(CFA_XSP16, literal(-4)))
        CFI ?BRET_EXT load(1, XDATA, add(CFA_XSP16, literal(-3)))
        CFI DPL0 load(1, XDATA, add(CFA_XSP16, literal(-2)))
        CFI DPH0 load(1, XDATA, add(CFA_XSP16, literal(-1)))
        CFI CFA_SP SP+0
        CFI CFA_XSP16 add(XSP16, 17)
        CFI Block cfiCond11 Using cfiCommon0
        CFI (cfiCond11) NoFunction
        CFI (cfiCond11) Conditional ??CrossCallReturnLabel_82, ??CrossCallReturnLabel_28
        CFI (cfiCond11) R6 load(1, XDATA, add(CFA_XSP16, literal(-10)))
        CFI (cfiCond11) VB load(1, XDATA, add(CFA_XSP16, literal(-9)))
        CFI (cfiCond11) V0 load(1, XDATA, add(CFA_XSP16, literal(-8)))
        CFI (cfiCond11) V1 load(1, XDATA, add(CFA_XSP16, literal(-7)))
        CFI (cfiCond11) R7 load(1, XDATA, add(CFA_XSP16, literal(-6)))
        CFI (cfiCond11) ?RET_LOW load(1, XDATA, add(CFA_XSP16, literal(-5)))
        CFI (cfiCond11) ?RET_HIGH load(1, XDATA, add(CFA_XSP16, literal(-4)))
        CFI (cfiCond11) ?BRET_EXT load(1, XDATA, add(CFA_XSP16, literal(-3)))
        CFI (cfiCond11) DPL0 load(1, XDATA, add(CFA_XSP16, literal(-2)))
        CFI (cfiCond11) DPH0 load(1, XDATA, add(CFA_XSP16, literal(-1)))
        CFI (cfiCond11) CFA_SP SP+0
        CFI (cfiCond11) CFA_XSP16 add(XSP16, 17)
        CFI Block cfiCond12 Using cfiCommon0
        CFI (cfiCond12) NoFunction
        CFI (cfiCond12) Conditional ??CrossCallReturnLabel_81, ??CrossCallReturnLabel_0
        CFI (cfiCond12) R6 load(1, XDATA, add(CFA_XSP16, literal(-10)))
        CFI (cfiCond12) VB load(1, XDATA, add(CFA_XSP16, literal(-9)))
        CFI (cfiCond12) V0 load(1, XDATA, add(CFA_XSP16, literal(-8)))
        CFI (cfiCond12) V1 load(1, XDATA, add(CFA_XSP16, literal(-7)))
        CFI (cfiCond12) R7 load(1, XDATA, add(CFA_XSP16, literal(-6)))
        CFI (cfiCond12) ?RET_LOW load(1, XDATA, add(CFA_XSP16, literal(-5)))
        CFI (cfiCond12) ?RET_HIGH load(1, XDATA, add(CFA_XSP16, literal(-4)))
        CFI (cfiCond12) ?BRET_EXT load(1, XDATA, add(CFA_XSP16, literal(-3)))
        CFI (cfiCond12) DPL0 load(1, XDATA, add(CFA_XSP16, literal(-2)))
        CFI (cfiCond12) DPH0 load(1, XDATA, add(CFA_XSP16, literal(-1)))
        CFI (cfiCond12) CFA_SP SP+0
        CFI (cfiCond12) CFA_XSP16 add(XSP16, 17)
        CFI Block cfiCond13 Using cfiCommon0
        CFI (cfiCond13) NoFunction
        CFI (cfiCond13) Conditional ??CrossCallReturnLabel_81, ??CrossCallReturnLabel_1
        CFI (cfiCond13) R6 load(1, XDATA, add(CFA_XSP16, literal(-10)))
        CFI (cfiCond13) VB load(1, XDATA, add(CFA_XSP16, literal(-9)))
        CFI (cfiCond13) V0 load(1, XDATA, add(CFA_XSP16, literal(-8)))
        CFI (cfiCond13) V1 load(1, XDATA, add(CFA_XSP16, literal(-7)))
        CFI (cfiCond13) R7 load(1, XDATA, add(CFA_XSP16, literal(-6)))
        CFI (cfiCond13) ?RET_LOW load(1, XDATA, add(CFA_XSP16, literal(-5)))
        CFI (cfiCond13) ?RET_HIGH load(1, XDATA, add(CFA_XSP16, literal(-4)))
        CFI (cfiCond13) ?BRET_EXT load(1, XDATA, add(CFA_XSP16, literal(-3)))
        CFI (cfiCond13) DPL0 load(1, XDATA, add(CFA_XSP16, literal(-2)))
        CFI (cfiCond13) DPH0 load(1, XDATA, add(CFA_XSP16, literal(-1)))
        CFI (cfiCond13) CFA_SP SP+0
        CFI (cfiCond13) CFA_XSP16 add(XSP16, 17)
        CFI Block cfiPicker14 Using cfiCommon1
        CFI (cfiPicker14) NoFunction
        CFI (cfiPicker14) Picker
        MOV     DPL,R6
        MOV     DPH,R7
        MOVX    A,@DPTR
        MOV     R0,A
        INC     DPTR
        MOVX    A,@DPTR
        MOV     R1,A
        MOV     DPL,R0
        MOV     DPH,R1
        ; Setup parameters for call to function HalUARTWrite
        ; Setup parameters for call to function HalUARTWrite
        MOVX    A,@DPTR
        RET
        CFI EndBlock cfiCond10
        CFI EndBlock cfiCond11
        CFI EndBlock cfiCond12
        CFI EndBlock cfiCond13
        CFI EndBlock cfiPicker14

        RSEG BANKED_CODE:CODE:NOROOT(0)
?Subroutine7:
        CFI Block cfiCond15 Using cfiCommon0
        CFI NoFunction
        CFI Conditional ??CrossCallReturnLabel_11
        CFI R6 load(1, XDATA, add(CFA_XSP16, literal(-10)))
        CFI VB load(1, XDATA, add(CFA_XSP16, literal(-9)))
        CFI V0 load(1, XDATA, add(CFA_XSP16, literal(-8)))
        CFI V1 load(1, XDATA, add(CFA_XSP16, literal(-7)))
        CFI R7 load(1, XDATA, add(CFA_XSP16, literal(-6)))
        CFI ?RET_LOW load(1, XDATA, add(CFA_XSP16, literal(-5)))
        CFI ?RET_HIGH load(1, XDATA, add(CFA_XSP16, literal(-4)))
        CFI ?BRET_EXT load(1, XDATA, add(CFA_XSP16, literal(-3)))
        CFI DPL0 load(1, XDATA, add(CFA_XSP16, literal(-2)))
        CFI DPH0 load(1, XDATA, add(CFA_XSP16, literal(-1)))
        CFI CFA_SP SP+0
        CFI CFA_XSP16 add(XSP16, 17)
        CFI Block cfiCond16 Using cfiCommon0
        CFI (cfiCond16) NoFunction
        CFI (cfiCond16) Conditional ??CrossCallReturnLabel_12
        CFI (cfiCond16) R6 load(1, XDATA, add(CFA_XSP16, literal(-10)))
        CFI (cfiCond16) VB load(1, XDATA, add(CFA_XSP16, literal(-9)))
        CFI (cfiCond16) V0 load(1, XDATA, add(CFA_XSP16, literal(-8)))
        CFI (cfiCond16) V1 load(1, XDATA, add(CFA_XSP16, literal(-7)))
        CFI (cfiCond16) R7 load(1, XDATA, add(CFA_XSP16, literal(-6)))
        CFI (cfiCond16) ?RET_LOW load(1, XDATA, add(CFA_XSP16, literal(-5)))
        CFI (cfiCond16) ?RET_HIGH load(1, XDATA, add(CFA_XSP16, literal(-4)))
        CFI (cfiCond16) ?BRET_EXT load(1, XDATA, add(CFA_XSP16, literal(-3)))
        CFI (cfiCond16) DPL0 load(1, XDATA, add(CFA_XSP16, literal(-2)))
        CFI (cfiCond16) DPH0 load(1, XDATA, add(CFA_XSP16, literal(-1)))
        CFI (cfiCond16) CFA_SP SP+0
        CFI (cfiCond16) CFA_XSP16 add(XSP16, 17)
        CFI Block cfiPicker17 Using cfiCommon1
        CFI (cfiPicker17) NoFunction
        CFI (cfiPicker17) Picker
        LCALL   ?Subroutine37 & 0xFFFF
??CrossCallReturnLabel_79:
        RET
        CFI EndBlock cfiCond15
        CFI EndBlock cfiCond16
        CFI EndBlock cfiPicker17

        RSEG BANKED_CODE:CODE:NOROOT(0)
?Subroutine37:
        CFI Block cfiCond18 Using cfiCommon0
        CFI NoFunction
        CFI Conditional ??CrossCallReturnLabel_79, ??CrossCallReturnLabel_11
        CFI R6 load(1, XDATA, add(CFA_XSP16, literal(-10)))
        CFI VB load(1, XDATA, add(CFA_XSP16, literal(-9)))
        CFI V0 load(1, XDATA, add(CFA_XSP16, literal(-8)))
        CFI V1 load(1, XDATA, add(CFA_XSP16, literal(-7)))
        CFI R7 load(1, XDATA, add(CFA_XSP16, literal(-6)))
        CFI ?RET_LOW load(1, XDATA, add(CFA_XSP16, literal(-5)))
        CFI ?RET_HIGH load(1, XDATA, add(CFA_XSP16, literal(-4)))
        CFI ?BRET_EXT load(1, XDATA, add(CFA_XSP16, literal(-3)))
        CFI DPL0 load(1, XDATA, add(CFA_XSP16, literal(-2)))
        CFI DPH0 load(1, XDATA, add(CFA_XSP16, literal(-1)))
        CFI CFA_SP SP+0
        CFI CFA_XSP16 add(XSP16, 17)
        CFI Block cfiCond19 Using cfiCommon0
        CFI (cfiCond19) NoFunction
        CFI (cfiCond19) Conditional ??CrossCallReturnLabel_79, ??CrossCallReturnLabel_12
        CFI (cfiCond19) R6 load(1, XDATA, add(CFA_XSP16, literal(-10)))
        CFI (cfiCond19) VB load(1, XDATA, add(CFA_XSP16, literal(-9)))
        CFI (cfiCond19) V0 load(1, XDATA, add(CFA_XSP16, literal(-8)))
        CFI (cfiCond19) V1 load(1, XDATA, add(CFA_XSP16, literal(-7)))
        CFI (cfiCond19) R7 load(1, XDATA, add(CFA_XSP16, literal(-6)))
        CFI (cfiCond19) ?RET_LOW load(1, XDATA, add(CFA_XSP16, literal(-5)))
        CFI (cfiCond19) ?RET_HIGH load(1, XDATA, add(CFA_XSP16, literal(-4)))
        CFI (cfiCond19) ?BRET_EXT load(1, XDATA, add(CFA_XSP16, literal(-3)))
        CFI (cfiCond19) DPL0 load(1, XDATA, add(CFA_XSP16, literal(-2)))
        CFI (cfiCond19) DPH0 load(1, XDATA, add(CFA_XSP16, literal(-1)))
        CFI (cfiCond19) CFA_SP SP+0
        CFI (cfiCond19) CFA_XSP16 add(XSP16, 17)
        CFI Block cfiCond20 Using cfiCommon0
        CFI (cfiCond20) NoFunction
        CFI (cfiCond20) Conditional ??CrossCallReturnLabel_80, ??CrossCallReturnLabel_7
        CFI (cfiCond20) R6 load(1, XDATA, add(CFA_XSP16, literal(-10)))
        CFI (cfiCond20) VB load(1, XDATA, add(CFA_XSP16, literal(-9)))
        CFI (cfiCond20) V0 load(1, XDATA, add(CFA_XSP16, literal(-8)))
        CFI (cfiCond20) V1 load(1, XDATA, add(CFA_XSP16, literal(-7)))
        CFI (cfiCond20) R7 load(1, XDATA, add(CFA_XSP16, literal(-6)))
        CFI (cfiCond20) ?RET_LOW load(1, XDATA, add(CFA_XSP16, literal(-5)))
        CFI (cfiCond20) ?RET_HIGH load(1, XDATA, add(CFA_XSP16, literal(-4)))
        CFI (cfiCond20) ?BRET_EXT load(1, XDATA, add(CFA_XSP16, literal(-3)))
        CFI (cfiCond20) DPL0 load(1, XDATA, add(CFA_XSP16, literal(-2)))
        CFI (cfiCond20) DPH0 load(1, XDATA, add(CFA_XSP16, literal(-1)))
        CFI (cfiCond20) CFA_SP SP+0
        CFI (cfiCond20) CFA_XSP16 add(XSP16, 17)
        CFI Block cfiCond21 Using cfiCommon0
        CFI (cfiCond21) NoFunction
        CFI (cfiCond21) Conditional ??CrossCallReturnLabel_80, ??CrossCallReturnLabel_8
        CFI (cfiCond21) R6 load(1, XDATA, add(CFA_XSP16, literal(-10)))
        CFI (cfiCond21) VB load(1, XDATA, add(CFA_XSP16, literal(-9)))
        CFI (cfiCond21) V0 load(1, XDATA, add(CFA_XSP16, literal(-8)))
        CFI (cfiCond21) V1 load(1, XDATA, add(CFA_XSP16, literal(-7)))
        CFI (cfiCond21) R7 load(1, XDATA, add(CFA_XSP16, literal(-6)))
        CFI (cfiCond21) ?RET_LOW load(1, XDATA, add(CFA_XSP16, literal(-5)))
        CFI (cfiCond21) ?RET_HIGH load(1, XDATA, add(CFA_XSP16, literal(-4)))
        CFI (cfiCond21) ?BRET_EXT load(1, XDATA, add(CFA_XSP16, literal(-3)))
        CFI (cfiCond21) DPL0 load(1, XDATA, add(CFA_XSP16, literal(-2)))
        CFI (cfiCond21) DPH0 load(1, XDATA, add(CFA_XSP16, literal(-1)))
        CFI (cfiCond21) CFA_SP SP+0
        CFI (cfiCond21) CFA_XSP16 add(XSP16, 17)
        CFI Block cfiPicker22 Using cfiCommon1
        CFI (cfiPicker22) NoFunction
        CFI (cfiPicker22) Picker
        MOVX    @DPTR,A
        LCALL   ?Subroutine43 & 0xFFFF
??CrossCallReturnLabel_90:
        INC     DPTR
        RET
        CFI EndBlock cfiCond18
        CFI EndBlock cfiCond19
        CFI EndBlock cfiCond20
        CFI EndBlock cfiCond21
        CFI EndBlock cfiPicker22

        RSEG BANKED_CODE:CODE:NOROOT(0)
?Subroutine43:
        CFI Block cfiCond23 Using cfiCommon0
        CFI NoFunction
        CFI Conditional ??CrossCallReturnLabel_89
        CFI R6 load(1, XDATA, add(CFA_XSP16, literal(-10)))
        CFI VB load(1, XDATA, add(CFA_XSP16, literal(-9)))
        CFI V0 load(1, XDATA, add(CFA_XSP16, literal(-8)))
        CFI V1 load(1, XDATA, add(CFA_XSP16, literal(-7)))
        CFI R7 load(1, XDATA, add(CFA_XSP16, literal(-6)))
        CFI ?RET_LOW load(1, XDATA, add(CFA_XSP16, literal(-5)))
        CFI ?RET_HIGH load(1, XDATA, add(CFA_XSP16, literal(-4)))
        CFI ?BRET_EXT load(1, XDATA, add(CFA_XSP16, literal(-3)))
        CFI DPL0 load(1, XDATA, add(CFA_XSP16, literal(-2)))
        CFI DPH0 load(1, XDATA, add(CFA_XSP16, literal(-1)))
        CFI CFA_SP SP+0
        CFI CFA_XSP16 add(XSP16, 17)
        CFI Block cfiCond24 Using cfiCommon0
        CFI (cfiCond24) NoFunction
        CFI (cfiCond24) Conditional ??CrossCallReturnLabel_90, ??CrossCallReturnLabel_79, ??CrossCallReturnLabel_11
        CFI (cfiCond24) R6 load(1, XDATA, add(CFA_XSP16, literal(-10)))
        CFI (cfiCond24) VB load(1, XDATA, add(CFA_XSP16, literal(-9)))
        CFI (cfiCond24) V0 load(1, XDATA, add(CFA_XSP16, literal(-8)))
        CFI (cfiCond24) V1 load(1, XDATA, add(CFA_XSP16, literal(-7)))
        CFI (cfiCond24) R7 load(1, XDATA, add(CFA_XSP16, literal(-6)))
        CFI (cfiCond24) ?RET_LOW load(1, XDATA, add(CFA_XSP16, literal(-5)))
        CFI (cfiCond24) ?RET_HIGH load(1, XDATA, add(CFA_XSP16, literal(-4)))
        CFI (cfiCond24) ?BRET_EXT load(1, XDATA, add(CFA_XSP16, literal(-3)))
        CFI (cfiCond24) DPL0 load(1, XDATA, add(CFA_XSP16, literal(-2)))
        CFI (cfiCond24) DPH0 load(1, XDATA, add(CFA_XSP16, literal(-1)))
        CFI (cfiCond24) CFA_SP SP+0
        CFI (cfiCond24) CFA_XSP16 add(XSP16, 17)
        CFI Block cfiCond25 Using cfiCommon0
        CFI (cfiCond25) NoFunction
        CFI (cfiCond25) Conditional ??CrossCallReturnLabel_90, ??CrossCallReturnLabel_79, ??CrossCallReturnLabel_12
        CFI (cfiCond25) R6 load(1, XDATA, add(CFA_XSP16, literal(-10)))
        CFI (cfiCond25) VB load(1, XDATA, add(CFA_XSP16, literal(-9)))
        CFI (cfiCond25) V0 load(1, XDATA, add(CFA_XSP16, literal(-8)))
        CFI (cfiCond25) V1 load(1, XDATA, add(CFA_XSP16, literal(-7)))
        CFI (cfiCond25) R7 load(1, XDATA, add(CFA_XSP16, literal(-6)))
        CFI (cfiCond25) ?RET_LOW load(1, XDATA, add(CFA_XSP16, literal(-5)))
        CFI (cfiCond25) ?RET_HIGH load(1, XDATA, add(CFA_XSP16, literal(-4)))
        CFI (cfiCond25) ?BRET_EXT load(1, XDATA, add(CFA_XSP16, literal(-3)))
        CFI (cfiCond25) DPL0 load(1, XDATA, add(CFA_XSP16, literal(-2)))
        CFI (cfiCond25) DPH0 load(1, XDATA, add(CFA_XSP16, literal(-1)))
        CFI (cfiCond25) CFA_SP SP+0
        CFI (cfiCond25) CFA_XSP16 add(XSP16, 17)
        CFI Block cfiCond26 Using cfiCommon0
        CFI (cfiCond26) NoFunction
        CFI (cfiCond26) Conditional ??CrossCallReturnLabel_90, ??CrossCallReturnLabel_80, ??CrossCallReturnLabel_7
        CFI (cfiCond26) R6 load(1, XDATA, add(CFA_XSP16, literal(-10)))
        CFI (cfiCond26) VB load(1, XDATA, add(CFA_XSP16, literal(-9)))
        CFI (cfiCond26) V0 load(1, XDATA, add(CFA_XSP16, literal(-8)))
        CFI (cfiCond26) V1 load(1, XDATA, add(CFA_XSP16, literal(-7)))
        CFI (cfiCond26) R7 load(1, XDATA, add(CFA_XSP16, literal(-6)))
        CFI (cfiCond26) ?RET_LOW load(1, XDATA, add(CFA_XSP16, literal(-5)))
        CFI (cfiCond26) ?RET_HIGH load(1, XDATA, add(CFA_XSP16, literal(-4)))
        CFI (cfiCond26) ?BRET_EXT load(1, XDATA, add(CFA_XSP16, literal(-3)))
        CFI (cfiCond26) DPL0 load(1, XDATA, add(CFA_XSP16, literal(-2)))
        CFI (cfiCond26) DPH0 load(1, XDATA, add(CFA_XSP16, literal(-1)))
        CFI (cfiCond26) CFA_SP SP+0
        CFI (cfiCond26) CFA_XSP16 add(XSP16, 17)
        CFI Block cfiCond27 Using cfiCommon0
        CFI (cfiCond27) NoFunction
        CFI (cfiCond27) Conditional ??CrossCallReturnLabel_90, ??CrossCallReturnLabel_80, ??CrossCallReturnLabel_8
        CFI (cfiCond27) R6 load(1, XDATA, add(CFA_XSP16, literal(-10)))
        CFI (cfiCond27) VB load(1, XDATA, add(CFA_XSP16, literal(-9)))
        CFI (cfiCond27) V0 load(1, XDATA, add(CFA_XSP16, literal(-8)))
        CFI (cfiCond27) V1 load(1, XDATA, add(CFA_XSP16, literal(-7)))
        CFI (cfiCond27) R7 load(1, XDATA, add(CFA_XSP16, literal(-6)))
        CFI (cfiCond27) ?RET_LOW load(1, XDATA, add(CFA_XSP16, literal(-5)))
        CFI (cfiCond27) ?RET_HIGH load(1, XDATA, add(CFA_XSP16, literal(-4)))
        CFI (cfiCond27) ?BRET_EXT load(1, XDATA, add(CFA_XSP16, literal(-3)))
        CFI (cfiCond27) DPL0 load(1, XDATA, add(CFA_XSP16, literal(-2)))
        CFI (cfiCond27) DPH0 load(1, XDATA, add(CFA_XSP16, literal(-1)))
        CFI (cfiCond27) CFA_SP SP+0
        CFI (cfiCond27) CFA_XSP16 add(XSP16, 17)
        CFI Block cfiPicker28 Using cfiCommon1
        CFI (cfiPicker28) NoFunction
        CFI (cfiPicker28) Picker
        MOV     DPL,R6
        MOV     DPH,R7
        MOVX    A,@DPTR
        MOV     R0,A
        INC     DPTR
        MOVX    A,@DPTR
        MOV     DPH,A
        MOV     DPL,R0
        RET
        CFI EndBlock cfiCond23
        CFI EndBlock cfiCond24
        CFI EndBlock cfiCond25
        CFI EndBlock cfiCond26
        CFI EndBlock cfiCond27
        CFI EndBlock cfiPicker28

        RSEG BANKED_CODE:CODE:NOROOT(0)
?Subroutine5:
        CFI Block cfiCond29 Using cfiCommon0
        CFI NoFunction
        CFI Conditional ??CrossCallReturnLabel_7
        CFI R6 load(1, XDATA, add(CFA_XSP16, literal(-10)))
        CFI VB load(1, XDATA, add(CFA_XSP16, literal(-9)))
        CFI V0 load(1, XDATA, add(CFA_XSP16, literal(-8)))
        CFI V1 load(1, XDATA, add(CFA_XSP16, literal(-7)))
        CFI R7 load(1, XDATA, add(CFA_XSP16, literal(-6)))
        CFI ?RET_LOW load(1, XDATA, add(CFA_XSP16, literal(-5)))
        CFI ?RET_HIGH load(1, XDATA, add(CFA_XSP16, literal(-4)))
        CFI ?BRET_EXT load(1, XDATA, add(CFA_XSP16, literal(-3)))
        CFI DPL0 load(1, XDATA, add(CFA_XSP16, literal(-2)))
        CFI DPH0 load(1, XDATA, add(CFA_XSP16, literal(-1)))
        CFI CFA_SP SP+0
        CFI CFA_XSP16 add(XSP16, 17)
        CFI Block cfiCond30 Using cfiCommon0
        CFI (cfiCond30) NoFunction
        CFI (cfiCond30) Conditional ??CrossCallReturnLabel_8
        CFI (cfiCond30) R6 load(1, XDATA, add(CFA_XSP16, literal(-10)))
        CFI (cfiCond30) VB load(1, XDATA, add(CFA_XSP16, literal(-9)))
        CFI (cfiCond30) V0 load(1, XDATA, add(CFA_XSP16, literal(-8)))
        CFI (cfiCond30) V1 load(1, XDATA, add(CFA_XSP16, literal(-7)))
        CFI (cfiCond30) R7 load(1, XDATA, add(CFA_XSP16, literal(-6)))
        CFI (cfiCond30) ?RET_LOW load(1, XDATA, add(CFA_XSP16, literal(-5)))
        CFI (cfiCond30) ?RET_HIGH load(1, XDATA, add(CFA_XSP16, literal(-4)))
        CFI (cfiCond30) ?BRET_EXT load(1, XDATA, add(CFA_XSP16, literal(-3)))
        CFI (cfiCond30) DPL0 load(1, XDATA, add(CFA_XSP16, literal(-2)))
        CFI (cfiCond30) DPH0 load(1, XDATA, add(CFA_XSP16, literal(-1)))
        CFI (cfiCond30) CFA_SP SP+0
        CFI (cfiCond30) CFA_XSP16 add(XSP16, 17)
        CFI Block cfiPicker31 Using cfiCommon1
        CFI (cfiPicker31) NoFunction
        CFI (cfiPicker31) Picker
        LCALL   ?Subroutine37 & 0xFFFF
??CrossCallReturnLabel_80:
        INC     DPTR
        INC     DPTR
        RET
        CFI EndBlock cfiCond29
        CFI EndBlock cfiCond30
        CFI EndBlock cfiPicker31

        RSEG BANKED_CODE:CODE:NOROOT(0)
?Subroutine1:
        CFI Block cfiCond32 Using cfiCommon0
        CFI NoFunction
        CFI Conditional ??CrossCallReturnLabel_0
        CFI R6 load(1, XDATA, add(CFA_XSP16, literal(-10)))
        CFI VB load(1, XDATA, add(CFA_XSP16, literal(-9)))
        CFI V0 load(1, XDATA, add(CFA_XSP16, literal(-8)))
        CFI V1 load(1, XDATA, add(CFA_XSP16, literal(-7)))
        CFI R7 load(1, XDATA, add(CFA_XSP16, literal(-6)))
        CFI ?RET_LOW load(1, XDATA, add(CFA_XSP16, literal(-5)))
        CFI ?RET_HIGH load(1, XDATA, add(CFA_XSP16, literal(-4)))
        CFI ?BRET_EXT load(1, XDATA, add(CFA_XSP16, literal(-3)))
        CFI DPL0 load(1, XDATA, add(CFA_XSP16, literal(-2)))
        CFI DPH0 load(1, XDATA, add(CFA_XSP16, literal(-1)))
        CFI CFA_SP SP+0
        CFI CFA_XSP16 add(XSP16, 17)
        CFI Block cfiCond33 Using cfiCommon0
        CFI (cfiCond33) NoFunction
        CFI (cfiCond33) Conditional ??CrossCallReturnLabel_1
        CFI (cfiCond33) R6 load(1, XDATA, add(CFA_XSP16, literal(-10)))
        CFI (cfiCond33) VB load(1, XDATA, add(CFA_XSP16, literal(-9)))
        CFI (cfiCond33) V0 load(1, XDATA, add(CFA_XSP16, literal(-8)))
        CFI (cfiCond33) V1 load(1, XDATA, add(CFA_XSP16, literal(-7)))
        CFI (cfiCond33) R7 load(1, XDATA, add(CFA_XSP16, literal(-6)))
        CFI (cfiCond33) ?RET_LOW load(1, XDATA, add(CFA_XSP16, literal(-5)))
        CFI (cfiCond33) ?RET_HIGH load(1, XDATA, add(CFA_XSP16, literal(-4)))
        CFI (cfiCond33) ?BRET_EXT load(1, XDATA, add(CFA_XSP16, literal(-3)))
        CFI (cfiCond33) DPL0 load(1, XDATA, add(CFA_XSP16, literal(-2)))
        CFI (cfiCond33) DPH0 load(1, XDATA, add(CFA_XSP16, literal(-1)))
        CFI (cfiCond33) CFA_SP SP+0
        CFI (cfiCond33) CFA_XSP16 add(XSP16, 17)
        CFI Block cfiPicker34 Using cfiCommon1
        CFI (cfiPicker34) NoFunction
        CFI (cfiPicker34) Picker
        LCALL   ?Subroutine38 & 0xFFFF
??CrossCallReturnLabel_81:
        MOV     R3,A
        MOV     DPTR,#short_test
        CLR     A
        MOVX    @DPTR,A
        INC     DPTR
        MOV     A,R3
        MOVX    @DPTR,A
        MOV     DPL,R0
        MOV     DPH,R1
        INC     DPTR
        MOVX    A,@DPTR
        MOV     DPTR,#short_test
        MOVX    @DPTR,A
        INC     DPTR
        MOVX    A,@DPTR
        MOVX    @DPTR,A
        ; Setup parameters for call to function osal_rand
        ; Setup parameters for call to function osal_rand
        LCALL   ?Subroutine41 & 0xFFFF
??CrossCallReturnLabel_86:
        RET
        CFI EndBlock cfiCond32
        CFI EndBlock cfiCond33
        CFI EndBlock cfiPicker34

        RSEG BANKED_CODE:CODE:NOROOT(0)
?Subroutine41:
        CFI Block cfiCond35 Using cfiCommon0
        CFI NoFunction
        CFI Conditional ??CrossCallReturnLabel_85, ??CrossCallReturnLabel_60
        CFI R6 load(1, XDATA, add(CFA_XSP16, literal(-10)))
        CFI VB load(1, XDATA, add(CFA_XSP16, literal(-9)))
        CFI V0 load(1, XDATA, add(CFA_XSP16, literal(-8)))
        CFI V1 load(1, XDATA, add(CFA_XSP16, literal(-7)))
        CFI R7 load(1, XDATA, add(CFA_XSP16, literal(-6)))
        CFI ?RET_LOW load(1, XDATA, add(CFA_XSP16, literal(-5)))
        CFI ?RET_HIGH load(1, XDATA, add(CFA_XSP16, literal(-4)))
        CFI ?BRET_EXT load(1, XDATA, add(CFA_XSP16, literal(-3)))
        CFI DPL0 load(1, XDATA, add(CFA_XSP16, literal(-2)))
        CFI DPH0 load(1, XDATA, add(CFA_XSP16, literal(-1)))
        CFI CFA_SP SP+0
        CFI CFA_XSP16 add(XSP16, 17)
        CFI Block cfiCond36 Using cfiCommon0
        CFI (cfiCond36) NoFunction
        CFI (cfiCond36) Conditional ??CrossCallReturnLabel_85, ??CrossCallReturnLabel_61
        CFI (cfiCond36) R6 load(1, XDATA, add(CFA_XSP16, literal(-10)))
        CFI (cfiCond36) VB load(1, XDATA, add(CFA_XSP16, literal(-9)))
        CFI (cfiCond36) V0 load(1, XDATA, add(CFA_XSP16, literal(-8)))
        CFI (cfiCond36) V1 load(1, XDATA, add(CFA_XSP16, literal(-7)))
        CFI (cfiCond36) R7 load(1, XDATA, add(CFA_XSP16, literal(-6)))
        CFI (cfiCond36) ?RET_LOW load(1, XDATA, add(CFA_XSP16, literal(-5)))
        CFI (cfiCond36) ?RET_HIGH load(1, XDATA, add(CFA_XSP16, literal(-4)))
        CFI (cfiCond36) ?BRET_EXT load(1, XDATA, add(CFA_XSP16, literal(-3)))
        CFI (cfiCond36) DPL0 load(1, XDATA, add(CFA_XSP16, literal(-2)))
        CFI (cfiCond36) DPH0 load(1, XDATA, add(CFA_XSP16, literal(-1)))
        CFI (cfiCond36) CFA_SP SP+0
        CFI (cfiCond36) CFA_XSP16 add(XSP16, 17)
        CFI Block cfiCond37 Using cfiCommon0
        CFI (cfiCond37) NoFunction
        CFI (cfiCond37) Conditional ??CrossCallReturnLabel_86, ??CrossCallReturnLabel_0
        CFI (cfiCond37) R6 load(1, XDATA, add(CFA_XSP16, literal(-10)))
        CFI (cfiCond37) VB load(1, XDATA, add(CFA_XSP16, literal(-9)))
        CFI (cfiCond37) V0 load(1, XDATA, add(CFA_XSP16, literal(-8)))
        CFI (cfiCond37) V1 load(1, XDATA, add(CFA_XSP16, literal(-7)))
        CFI (cfiCond37) R7 load(1, XDATA, add(CFA_XSP16, literal(-6)))
        CFI (cfiCond37) ?RET_LOW load(1, XDATA, add(CFA_XSP16, literal(-5)))
        CFI (cfiCond37) ?RET_HIGH load(1, XDATA, add(CFA_XSP16, literal(-4)))
        CFI (cfiCond37) ?BRET_EXT load(1, XDATA, add(CFA_XSP16, literal(-3)))
        CFI (cfiCond37) DPL0 load(1, XDATA, add(CFA_XSP16, literal(-2)))
        CFI (cfiCond37) DPH0 load(1, XDATA, add(CFA_XSP16, literal(-1)))
        CFI (cfiCond37) CFA_SP SP+0
        CFI (cfiCond37) CFA_XSP16 add(XSP16, 17)
        CFI Block cfiCond38 Using cfiCommon0
        CFI (cfiCond38) NoFunction
        CFI (cfiCond38) Conditional ??CrossCallReturnLabel_86, ??CrossCallReturnLabel_1
        CFI (cfiCond38) R6 load(1, XDATA, add(CFA_XSP16, literal(-10)))
        CFI (cfiCond38) VB load(1, XDATA, add(CFA_XSP16, literal(-9)))
        CFI (cfiCond38) V0 load(1, XDATA, add(CFA_XSP16, literal(-8)))
        CFI (cfiCond38) V1 load(1, XDATA, add(CFA_XSP16, literal(-7)))
        CFI (cfiCond38) R7 load(1, XDATA, add(CFA_XSP16, literal(-6)))
        CFI (cfiCond38) ?RET_LOW load(1, XDATA, add(CFA_XSP16, literal(-5)))
        CFI (cfiCond38) ?RET_HIGH load(1, XDATA, add(CFA_XSP16, literal(-4)))
        CFI (cfiCond38) ?BRET_EXT load(1, XDATA, add(CFA_XSP16, literal(-3)))
        CFI (cfiCond38) DPL0 load(1, XDATA, add(CFA_XSP16, literal(-2)))
        CFI (cfiCond38) DPH0 load(1, XDATA, add(CFA_XSP16, literal(-1)))
        CFI (cfiCond38) CFA_SP SP+0
        CFI (cfiCond38) CFA_XSP16 add(XSP16, 17)
        CFI Block cfiPicker39 Using cfiCommon1
        CFI (cfiPicker39) NoFunction
        CFI (cfiPicker39) Picker
        LCALL   ??osal_rand?relay
        MOV     ?V0 + 0,R2
        MOV     R0,?V0 + 0
        ; Setup parameters for call to function osal_start_timerEx
        ; Setup parameters for call to function osal_start_timerEx
        ; Setup parameters for call to function osal_start_timerEx
        ; Setup parameters for call to function osal_start_timerEx
        MOV     A,#-0x1
        ANL     A,R0
        MOV     R4,A
        MOV     R5,#0x0
        RET
        CFI EndBlock cfiCond35
        CFI EndBlock cfiCond36
        CFI EndBlock cfiCond37
        CFI EndBlock cfiCond38
        CFI EndBlock cfiPicker39
//  575 
//  576 /*********************************************************************
//  577  * @fn      SampleApp_SendPeriodicMessage  发送数据函数
//  578  *
//  579  * @brief   Send the periodic message.
//  580             发送周期信息给协调器，协调器可以知道那个设备加入网络，那个设备离开网络
//  581  *
//  582  * @param   none
//  583  *
//  584  * @return  none
//  585  */

        RSEG BANKED_CODE:CODE:NOROOT(0)
//  586 void SampleApp_SendPeriodicMessage( void )//周期函数这里用作TEST
SampleApp_SendPeriodicMessage:
        CFI Block cfiBlock40 Using cfiCommon0
        CFI Function SampleApp_SendPeriodicMessage
//  587 {
        FUNCALL SampleApp_SendPeriodicMessage, AF_DataRequest
        LOCFRAME ISTACK, 0, STACK
        LOCFRAME PSTACK, 0, STACK
        LOCFRAME XSTACK, 19, STACK
        LOCFRAME IOVERLAY, 0, STATIC
        LOCFRAME DOVERLAY, 0, STATIC
        ARGFRAME ISTACK, 0, STACK
        ARGFRAME PSTACK, 0, STACK
        ARGFRAME XSTACK, 19, STACK
        ARGFRAME IOVERLAY, 0, STATIC
        ARGFRAME DOVERLAY, 0, STATIC
        MOV     A,#-0xa
        LCALL   ?BANKED_ENTER_XDATA
        CFI DPH0 load(1, XDATA, add(CFA_XSP16, literal(-1)))
        CFI DPL0 load(1, XDATA, add(CFA_XSP16, literal(-2)))
        CFI ?BRET_EXT load(1, XDATA, add(CFA_XSP16, literal(-3)))
        CFI ?RET_HIGH load(1, XDATA, add(CFA_XSP16, literal(-4)))
        CFI ?RET_LOW load(1, XDATA, add(CFA_XSP16, literal(-5)))
        CFI R7 load(1, XDATA, add(CFA_XSP16, literal(-6)))
        CFI V1 load(1, XDATA, add(CFA_XSP16, literal(-7)))
        CFI V0 load(1, XDATA, add(CFA_XSP16, literal(-8)))
        CFI VB load(1, XDATA, add(CFA_XSP16, literal(-9)))
        CFI R6 load(1, XDATA, add(CFA_XSP16, literal(-10)))
        CFI CFA_SP SP+0
        CFI CFA_XSP16 add(XSP16, 10)
        ; Saved register size: 10
        ; Auto size: 0
//  588   
//  589   if ( AF_DataRequest( &SampleApp_Periodic_DstAddr, 
//  590                        &SampleApp_epDesc,
//  591                        SAMPLEAPP_PERIODIC_CLUSTERID,
//  592                        5,
//  593                        &pIDbuf[0],
//  594                        &SampleApp_TransID,
//  595                        AF_DISCV_ROUTE,
//  596                        AF_DEFAULT_RADIUS ) == afStatus_SUCCESS )
        ; Setup parameters for call to function AF_DataRequest
        MOV     ?V0 + 0,#0x1e
        MOV     R0,#?V0 + 0
        LCALL   ?PUSH_XSTACK_I_ONE
        CFI CFA_XSP16 add(XSP16, 11)
        MOV     ?V0 + 0,#(SampleApp_TransID & 0xff)
        MOV     ?V0 + 1,#((SampleApp_TransID >> 8) & 0xff)
        MOV     R0,#?V0 + 0
        LCALL   ?PUSH_XSTACK_I_TWO
        CFI CFA_XSP16 add(XSP16, 13)
        MOV     ?V0 + 0,#(pIDbuf & 0xff)
        MOV     ?V0 + 1,#((pIDbuf >> 8) & 0xff)
        MOV     R0,#?V0 + 0
        LCALL   ?PUSH_XSTACK_I_TWO
        CFI CFA_XSP16 add(XSP16, 15)
        MOV     ?V0 + 0,#0x5
        MOV     ?V0 + 1,#0x0
        MOV     R0,#?V0 + 0
        LCALL   ?PUSH_XSTACK_I_TWO
        CFI CFA_XSP16 add(XSP16, 17)
        MOV     ?V0 + 0,#0x1
        MOV     R0,#?V0 + 0
        LCALL   ?PUSH_XSTACK_I_TWO
        CFI CFA_XSP16 add(XSP16, 19)
        MOV     R1,#0x20
        MOV     R4,#(SampleApp_epDesc & 0xff)
        MOV     R5,#((SampleApp_epDesc >> 8) & 0xff)
        MOV     R2,#(SampleApp_Periodic_DstAddr & 0xff)
        MOV     R3,#((SampleApp_Periodic_DstAddr >> 8) & 0xff)
        LCALL   ??Subroutine66_0 & 0xFFFF
??CrossCallReturnLabel_130:
        LJMP    ??Subroutine60_0 & 0xFFFF
        CFI EndBlock cfiBlock40
//  597   
//  598   {
//  599     //Successfully requested to be sent    
//  600   }
//  601   else
//  602   {
//  603     // Error occurred in request to send.
//  604   }
//  605 }
//  606 
//  607 /*********************************************************************
//  608  * @fn      SampleApp_SendFlashMessage
//  609  *
//  610  * @brief   Send the flash message to group 1.
//  611  *
//  612  * @param   flashTime - in milliseconds
//  613  *
//  614  * @return  none
//  615  */

        RSEG BANKED_CODE:CODE:NOROOT(0)
//  616 void SampleApp_SendFlashMessage( uint16 flashTime )
SampleApp_SendFlashMessage:
        CFI Block cfiBlock41 Using cfiCommon0
        CFI Function SampleApp_SendFlashMessage
//  617 {
        FUNCALL SampleApp_SendFlashMessage, AF_DataRequest
        LOCFRAME ISTACK, 0, STACK
        LOCFRAME PSTACK, 0, STACK
        LOCFRAME XSTACK, 22, STACK
        LOCFRAME IOVERLAY, 0, STATIC
        LOCFRAME DOVERLAY, 0, STATIC
        ARGFRAME ISTACK, 0, STACK
        ARGFRAME PSTACK, 0, STACK
        ARGFRAME XSTACK, 22, STACK
        ARGFRAME IOVERLAY, 0, STATIC
        ARGFRAME DOVERLAY, 0, STATIC
        MOV     A,#-0xa
        LCALL   ?BANKED_ENTER_XDATA
        CFI DPH0 load(1, XDATA, add(CFA_XSP16, literal(-1)))
        CFI DPL0 load(1, XDATA, add(CFA_XSP16, literal(-2)))
        CFI ?BRET_EXT load(1, XDATA, add(CFA_XSP16, literal(-3)))
        CFI ?RET_HIGH load(1, XDATA, add(CFA_XSP16, literal(-4)))
        CFI ?RET_LOW load(1, XDATA, add(CFA_XSP16, literal(-5)))
        CFI R7 load(1, XDATA, add(CFA_XSP16, literal(-6)))
        CFI V1 load(1, XDATA, add(CFA_XSP16, literal(-7)))
        CFI V0 load(1, XDATA, add(CFA_XSP16, literal(-8)))
        CFI VB load(1, XDATA, add(CFA_XSP16, literal(-9)))
        CFI R6 load(1, XDATA, add(CFA_XSP16, literal(-10)))
        CFI CFA_SP SP+0
        CFI CFA_XSP16 add(XSP16, 10)
        ; Saved register size: 10
        ; Auto size: 3
        MOV     A,#-0x3
        LCALL   ?ALLOC_XSTACK8
        CFI CFA_XSP16 add(XSP16, 13)
//  618   uint8 buffer[3];
//  619   buffer[0] = (uint8)(SampleAppFlashCounter++);
        MOV     DPTR,#SampleAppFlashCounter
        MOVX    A,@DPTR
        MOV     DPL,?XSP + 0
        MOV     DPH,?XSP + 1
        MOVX    @DPTR,A
        MOV     DPTR,#SampleAppFlashCounter
        MOVX    A,@DPTR
        INC     A
        MOVX    @DPTR,A
//  620   buffer[1] = LO_UINT16( flashTime );
        MOV     A,#0x1
        LCALL   ?XSTACK_DISP0_8
        MOV     A,R2
        MOVX    @DPTR,A
//  621   buffer[2] = HI_UINT16( flashTime );
        MOV     A,#0x2
        LCALL   ?XSTACK_DISP0_8
        MOV     A,R3
        LCALL   ?Subroutine47 & 0xFFFF
//  622 
//  623   if ( AF_DataRequest( &SampleApp_Flash_DstAddr, &SampleApp_epDesc,
//  624                        SAMPLEAPP_FLASH_CLUSTERID,
//  625                        3,
//  626                        buffer,
//  627                        &SampleApp_TransID,
//  628                        AF_DISCV_ROUTE,
//  629                        AF_DEFAULT_RADIUS ) == afStatus_SUCCESS )
??CrossCallReturnLabel_143:
        LCALL   ?PUSH_XSTACK_I_ONE
        CFI CFA_XSP16 add(XSP16, 14)
        MOV     ?V0 + 0,#(SampleApp_TransID & 0xff)
        MOV     ?V0 + 1,#((SampleApp_TransID >> 8) & 0xff)
        MOV     R0,#?V0 + 0
        LCALL   ?PUSH_XSTACK_I_TWO
        CFI CFA_XSP16 add(XSP16, 16)
        MOV     A,#0x3
        LCALL   ?XSTACK_DISP0_8
        MOV     ?V0 + 0,DPL
        MOV     ?V0 + 1,DPH
        MOV     R0,#?V0 + 0
        LCALL   ?PUSH_XSTACK_I_TWO
        CFI CFA_XSP16 add(XSP16, 18)
        MOV     ?V0 + 0,#0x3
        MOV     ?V0 + 1,#0x0
        MOV     R0,#?V0 + 0
        LCALL   ?PUSH_XSTACK_I_TWO
        CFI CFA_XSP16 add(XSP16, 20)
        MOV     ?V0 + 0,#0x2
        MOV     R0,#?V0 + 0
        LCALL   ?PUSH_XSTACK_I_TWO
        CFI CFA_XSP16 add(XSP16, 22)
        MOV     R1,#0x20
        MOV     R4,#(SampleApp_epDesc & 0xff)
        MOV     R5,#((SampleApp_epDesc >> 8) & 0xff)
        MOV     R2,#(SampleApp_Flash_DstAddr & 0xff)
        MOV     R3,#((SampleApp_Flash_DstAddr >> 8) & 0xff)
        LCALL   ??Subroutine66_0 & 0xFFFF
??CrossCallReturnLabel_131:
        LCALL   ?DEALLOC_XSTACK8
        CFI CFA_XSP16 add(XSP16, 13)
//  630   {
//  631   }
//  632   else
//  633   {
//  634     // Error occurred in request to send.
//  635   }
//  636 }
        MOV     A,#0x3
        LJMP    ??Subroutine60_0 & 0xFFFF
        CFI EndBlock cfiBlock41
//  637 
//  638 /*********************************************************************
//  639 *********************************************************************/

        RSEG XDATA_Z:XDATA:NOROOT(0)
//  640 uint8 rbuf_Free_Flag;
rbuf_Free_Flag:
        DS 1
        REQUIRE __INIT_XDATA_Z

        RSEG BANKED_CODE:CODE:NOROOT(0)
//  641 void SampleApp_UART_EVT(void)
SampleApp_UART_EVT:
        CFI Block cfiBlock42 Using cfiCommon0
        CFI Function SampleApp_UART_EVT
//  642 {
        FUNCALL SampleApp_UART_EVT, ReadPanidbuf
        LOCFRAME ISTACK, 2, STACK
        LOCFRAME PSTACK, 0, STACK
        LOCFRAME XSTACK, 0, STACK
        LOCFRAME IOVERLAY, 0, STATIC
        LOCFRAME DOVERLAY, 0, STATIC
        ARGFRAME ISTACK, 2, STACK
        ARGFRAME PSTACK, 0, STACK
        ARGFRAME XSTACK, 0, STACK
        ARGFRAME IOVERLAY, 0, STATIC
        ARGFRAME DOVERLAY, 0, STATIC
        FUNCALL SampleApp_UART_EVT, comparebuf
        LOCFRAME ISTACK, 2, STACK
        LOCFRAME PSTACK, 0, STACK
        LOCFRAME XSTACK, 0, STACK
        LOCFRAME IOVERLAY, 0, STATIC
        LOCFRAME DOVERLAY, 0, STATIC
        ARGFRAME ISTACK, 2, STACK
        ARGFRAME PSTACK, 0, STACK
        ARGFRAME XSTACK, 0, STACK
        ARGFRAME IOVERLAY, 0, STATIC
        ARGFRAME DOVERLAY, 0, STATIC
        FUNCALL SampleApp_UART_EVT, ReadID
        LOCFRAME ISTACK, 2, STACK
        LOCFRAME PSTACK, 0, STACK
        LOCFRAME XSTACK, 0, STACK
        LOCFRAME IOVERLAY, 0, STATIC
        LOCFRAME DOVERLAY, 0, STATIC
        ARGFRAME ISTACK, 2, STACK
        ARGFRAME PSTACK, 0, STACK
        ARGFRAME XSTACK, 0, STACK
        ARGFRAME IOVERLAY, 0, STATIC
        ARGFRAME DOVERLAY, 0, STATIC
        FUNCALL SampleApp_UART_EVT, CompforID
        LOCFRAME ISTACK, 2, STACK
        LOCFRAME PSTACK, 0, STACK
        LOCFRAME XSTACK, 0, STACK
        LOCFRAME IOVERLAY, 0, STATIC
        LOCFRAME DOVERLAY, 0, STATIC
        ARGFRAME ISTACK, 2, STACK
        ARGFRAME PSTACK, 0, STACK
        ARGFRAME XSTACK, 0, STACK
        ARGFRAME IOVERLAY, 0, STATIC
        ARGFRAME DOVERLAY, 0, STATIC
        FUNCALL SampleApp_UART_EVT, CheckToSetTest
        LOCFRAME ISTACK, 2, STACK
        LOCFRAME PSTACK, 0, STACK
        LOCFRAME XSTACK, 0, STACK
        LOCFRAME IOVERLAY, 0, STATIC
        LOCFRAME DOVERLAY, 0, STATIC
        ARGFRAME ISTACK, 2, STACK
        ARGFRAME PSTACK, 0, STACK
        ARGFRAME XSTACK, 0, STACK
        ARGFRAME IOVERLAY, 0, STATIC
        ARGFRAME DOVERLAY, 0, STATIC
        FUNCALL SampleApp_UART_EVT, IDISUSE
        LOCFRAME ISTACK, 2, STACK
        LOCFRAME PSTACK, 0, STACK
        LOCFRAME XSTACK, 0, STACK
        LOCFRAME IOVERLAY, 0, STATIC
        LOCFRAME DOVERLAY, 0, STATIC
        ARGFRAME ISTACK, 2, STACK
        ARGFRAME PSTACK, 0, STACK
        ARGFRAME XSTACK, 0, STACK
        ARGFRAME IOVERLAY, 0, STATIC
        ARGFRAME DOVERLAY, 0, STATIC
        FUNCALL SampleApp_UART_EVT, CompforTestID
        LOCFRAME ISTACK, 2, STACK
        LOCFRAME PSTACK, 0, STACK
        LOCFRAME XSTACK, 0, STACK
        LOCFRAME IOVERLAY, 0, STATIC
        LOCFRAME DOVERLAY, 0, STATIC
        ARGFRAME ISTACK, 2, STACK
        ARGFRAME PSTACK, 0, STACK
        ARGFRAME XSTACK, 0, STACK
        ARGFRAME IOVERLAY, 0, STATIC
        ARGFRAME DOVERLAY, 0, STATIC
        FUNCALL SampleApp_UART_EVT, CompForVdd
        LOCFRAME ISTACK, 2, STACK
        LOCFRAME PSTACK, 0, STACK
        LOCFRAME XSTACK, 0, STACK
        LOCFRAME IOVERLAY, 0, STATIC
        LOCFRAME DOVERLAY, 0, STATIC
        ARGFRAME ISTACK, 2, STACK
        ARGFRAME PSTACK, 0, STACK
        ARGFRAME XSTACK, 0, STACK
        ARGFRAME IOVERLAY, 0, STATIC
        ARGFRAME DOVERLAY, 0, STATIC
        FUNCALL SampleApp_UART_EVT, CompforTESTID
        LOCFRAME ISTACK, 2, STACK
        LOCFRAME PSTACK, 0, STACK
        LOCFRAME XSTACK, 0, STACK
        LOCFRAME IOVERLAY, 0, STATIC
        LOCFRAME DOVERLAY, 0, STATIC
        ARGFRAME ISTACK, 2, STACK
        ARGFRAME PSTACK, 0, STACK
        ARGFRAME XSTACK, 0, STACK
        ARGFRAME IOVERLAY, 0, STATIC
        ARGFRAME DOVERLAY, 0, STATIC
        FUNCALL SampleApp_UART_EVT, CompforTEST_BATTERY
        LOCFRAME ISTACK, 2, STACK
        LOCFRAME PSTACK, 0, STACK
        LOCFRAME XSTACK, 0, STACK
        LOCFRAME IOVERLAY, 0, STATIC
        LOCFRAME DOVERLAY, 0, STATIC
        ARGFRAME ISTACK, 2, STACK
        ARGFRAME PSTACK, 0, STACK
        ARGFRAME XSTACK, 0, STACK
        ARGFRAME IOVERLAY, 0, STATIC
        ARGFRAME DOVERLAY, 0, STATIC
        FUNCALL SampleApp_UART_EVT, SampleApp_SPI_SendData
        LOCFRAME ISTACK, 2, STACK
        LOCFRAME PSTACK, 0, STACK
        LOCFRAME XSTACK, 0, STACK
        LOCFRAME IOVERLAY, 0, STATIC
        LOCFRAME DOVERLAY, 0, STATIC
        ARGFRAME ISTACK, 2, STACK
        ARGFRAME PSTACK, 0, STACK
        ARGFRAME XSTACK, 0, STACK
        ARGFRAME IOVERLAY, 0, STATIC
        ARGFRAME DOVERLAY, 0, STATIC
        PUSH    DPL
        CFI DPL0 Frame(CFA_SP, 4)
        CFI CFA_SP SP+-4
        PUSH    DPH
        CFI DPH0 Frame(CFA_SP, 5)
        CFI CFA_SP SP+-5
        ; Saved register size: 2
        ; Auto size: 0
//  643     rbuf_Free_Flag=0;
        CLR     A
        MOV     DPTR,#rbuf_Free_Flag
        MOVX    @DPTR,A
//  644     ReadPanidbuf(rbuf);
        ; Setup parameters for call to function ReadPanidbuf
        LCALL   ?Subroutine18 & 0xFFFF
??CrossCallReturnLabel_33:
        LCALL   ??ReadPanidbuf?relay
//  645     
//  646     if(rbuf_Free_Flag==0)
        MOV     DPTR,#rbuf_Free_Flag
        MOVX    A,@DPTR
        JNZ     ??SampleApp_UART_EVT_0
//  647     {
//  648       comparebuf(rbuf);
        ; Setup parameters for call to function comparebuf
        LCALL   ?Subroutine18 & 0xFFFF
//  649     }
??CrossCallReturnLabel_34:
        LCALL   ??comparebuf?relay
//  650     if(rbuf_Free_Flag==0)
??SampleApp_UART_EVT_0:
        MOV     DPTR,#rbuf_Free_Flag
        MOVX    A,@DPTR
        JNZ     ??SampleApp_UART_EVT_1
//  651     {
//  652       ReadID(rbuf);
        ; Setup parameters for call to function ReadID
        LCALL   ?Subroutine18 & 0xFFFF
//  653     } 
??CrossCallReturnLabel_35:
        LCALL   ??ReadID?relay
//  654     if(rbuf_Free_Flag==0)
??SampleApp_UART_EVT_1:
        MOV     DPTR,#rbuf_Free_Flag
        MOVX    A,@DPTR
        JNZ     ??SampleApp_UART_EVT_2
//  655     {
//  656      CompforID(rbuf);
        ; Setup parameters for call to function CompforID
        LCALL   ?Subroutine18 & 0xFFFF
//  657     }
??CrossCallReturnLabel_36:
        LCALL   ??CompforID?relay
//  658     
//  659     if(rbuf_Free_Flag==0)
??SampleApp_UART_EVT_2:
        MOV     DPTR,#rbuf_Free_Flag
        MOVX    A,@DPTR
        JNZ     ??SampleApp_UART_EVT_3
//  660     {
//  661      CheckToSetTest(rbuf);
        ; Setup parameters for call to function CheckToSetTest
        LCALL   ?Subroutine18 & 0xFFFF
//  662     } 
??CrossCallReturnLabel_37:
        LCALL   ??CheckToSetTest?relay
//  663     
//  664     if(rbuf_Free_Flag==0)
??SampleApp_UART_EVT_3:
        MOV     DPTR,#rbuf_Free_Flag
        MOVX    A,@DPTR
        JNZ     ??SampleApp_UART_EVT_4
//  665     {
//  666       IDISUSE(rbuf);
        ; Setup parameters for call to function IDISUSE
        LCALL   ?Subroutine18 & 0xFFFF
//  667     } 
??CrossCallReturnLabel_38:
        LCALL   ??IDISUSE?relay
//  668     
//  669     if(rbuf_Free_Flag==0)
??SampleApp_UART_EVT_4:
        MOV     DPTR,#rbuf_Free_Flag
        MOVX    A,@DPTR
        JNZ     ??SampleApp_UART_EVT_5
//  670     {
//  671       CompforTestID(rbuf);
        ; Setup parameters for call to function CompforTestID
        LCALL   ?Subroutine18 & 0xFFFF
//  672     } 
??CrossCallReturnLabel_39:
        LCALL   ??CompforTestID?relay
//  673     
//  674     if(rbuf_Free_Flag==0)
??SampleApp_UART_EVT_5:
        MOV     DPTR,#rbuf_Free_Flag
        MOVX    A,@DPTR
        JNZ     ??SampleApp_UART_EVT_6
//  675     {
//  676       CompForVdd(rbuf);
        ; Setup parameters for call to function CompForVdd
        LCALL   ?Subroutine18 & 0xFFFF
//  677     } 
??CrossCallReturnLabel_40:
        LCALL   ??CompForVdd?relay
//  678     if(rbuf_Free_Flag==0)
??SampleApp_UART_EVT_6:
        MOV     DPTR,#rbuf_Free_Flag
        MOVX    A,@DPTR
        JNZ     ??SampleApp_UART_EVT_7
//  679     {
//  680       CompforTESTID(rbuf);
        ; Setup parameters for call to function CompforTESTID
        LCALL   ?Subroutine18 & 0xFFFF
//  681     } 
??CrossCallReturnLabel_41:
        LCALL   ??CompforTESTID?relay
//  682     
//  683     if(rbuf_Free_Flag==0)
??SampleApp_UART_EVT_7:
        MOV     DPTR,#rbuf_Free_Flag
        MOVX    A,@DPTR
        JNZ     ??SampleApp_UART_EVT_8
//  684     {
//  685       CompforTEST_BATTERY(rbuf);
        ; Setup parameters for call to function CompforTEST_BATTERY
        LCALL   ?Subroutine18 & 0xFFFF
//  686     } 
??CrossCallReturnLabel_42:
        LCALL   ??CompforTEST_BATTERY?relay
//  687     
//  688     if(rbuf_Free_Flag==0)
??SampleApp_UART_EVT_8:
        MOV     DPTR,#rbuf_Free_Flag
        MOVX    A,@DPTR
        JNZ     ??SampleApp_UART_EVT_9
//  689     {
//  690       SampleApp_SPI_SendData( rbuf, buflen); 
        ; Setup parameters for call to function SampleApp_SPI_SendData
        MOV     DPTR,#buflen
        MOVX    A,@DPTR
        MOV     R1,A
        LCALL   ?Subroutine18 & 0xFFFF
//  691     }
??CrossCallReturnLabel_43:
        LCALL   ??SampleApp_SPI_SendData?relay
        CFI EndBlock cfiBlock42
//  692 }
??SampleApp_UART_EVT_9:
        REQUIRE ?Subroutine48
        ; // Fall through to label ?Subroutine48

        RSEG BANKED_CODE:CODE:NOROOT(0)
?Subroutine48:
        CFI Block cfiBlock43 Using cfiCommon0
        CFI NoFunction
        CFI CFA_SP SP+-5
        CFI DPL0 Frame(CFA_SP, 4)
        CFI DPH0 Frame(CFA_SP, 5)
        POP     DPH
        CFI CFA_SP SP+-4
        CFI DPH0 SameValue
        POP     DPL
        CFI CFA_SP SP+-3
        CFI DPL0 SameValue
        LJMP    ?BRET
        CFI EndBlock cfiBlock43

        RSEG BANKED_CODE:CODE:NOROOT(0)
?Subroutine18:
        CFI Block cfiCond44 Using cfiCommon0
        CFI NoFunction
        CFI Conditional ??CrossCallReturnLabel_33
        CFI DPL0 Frame(CFA_SP, 4)
        CFI DPH0 Frame(CFA_SP, 5)
        CFI CFA_SP SP+-5
        CFI Block cfiCond45 Using cfiCommon0
        CFI (cfiCond45) NoFunction
        CFI (cfiCond45) Conditional ??CrossCallReturnLabel_34
        CFI (cfiCond45) DPL0 Frame(CFA_SP, 4)
        CFI (cfiCond45) DPH0 Frame(CFA_SP, 5)
        CFI (cfiCond45) CFA_SP SP+-5
        CFI Block cfiCond46 Using cfiCommon0
        CFI (cfiCond46) NoFunction
        CFI (cfiCond46) Conditional ??CrossCallReturnLabel_35
        CFI (cfiCond46) DPL0 Frame(CFA_SP, 4)
        CFI (cfiCond46) DPH0 Frame(CFA_SP, 5)
        CFI (cfiCond46) CFA_SP SP+-5
        CFI Block cfiCond47 Using cfiCommon0
        CFI (cfiCond47) NoFunction
        CFI (cfiCond47) Conditional ??CrossCallReturnLabel_36
        CFI (cfiCond47) DPL0 Frame(CFA_SP, 4)
        CFI (cfiCond47) DPH0 Frame(CFA_SP, 5)
        CFI (cfiCond47) CFA_SP SP+-5
        CFI Block cfiCond48 Using cfiCommon0
        CFI (cfiCond48) NoFunction
        CFI (cfiCond48) Conditional ??CrossCallReturnLabel_37
        CFI (cfiCond48) DPL0 Frame(CFA_SP, 4)
        CFI (cfiCond48) DPH0 Frame(CFA_SP, 5)
        CFI (cfiCond48) CFA_SP SP+-5
        CFI Block cfiCond49 Using cfiCommon0
        CFI (cfiCond49) NoFunction
        CFI (cfiCond49) Conditional ??CrossCallReturnLabel_38
        CFI (cfiCond49) DPL0 Frame(CFA_SP, 4)
        CFI (cfiCond49) DPH0 Frame(CFA_SP, 5)
        CFI (cfiCond49) CFA_SP SP+-5
        CFI Block cfiCond50 Using cfiCommon0
        CFI (cfiCond50) NoFunction
        CFI (cfiCond50) Conditional ??CrossCallReturnLabel_39
        CFI (cfiCond50) DPL0 Frame(CFA_SP, 4)
        CFI (cfiCond50) DPH0 Frame(CFA_SP, 5)
        CFI (cfiCond50) CFA_SP SP+-5
        CFI Block cfiCond51 Using cfiCommon0
        CFI (cfiCond51) NoFunction
        CFI (cfiCond51) Conditional ??CrossCallReturnLabel_40
        CFI (cfiCond51) DPL0 Frame(CFA_SP, 4)
        CFI (cfiCond51) DPH0 Frame(CFA_SP, 5)
        CFI (cfiCond51) CFA_SP SP+-5
        CFI Block cfiCond52 Using cfiCommon0
        CFI (cfiCond52) NoFunction
        CFI (cfiCond52) Conditional ??CrossCallReturnLabel_41
        CFI (cfiCond52) DPL0 Frame(CFA_SP, 4)
        CFI (cfiCond52) DPH0 Frame(CFA_SP, 5)
        CFI (cfiCond52) CFA_SP SP+-5
        CFI Block cfiCond53 Using cfiCommon0
        CFI (cfiCond53) NoFunction
        CFI (cfiCond53) Conditional ??CrossCallReturnLabel_42
        CFI (cfiCond53) DPL0 Frame(CFA_SP, 4)
        CFI (cfiCond53) DPH0 Frame(CFA_SP, 5)
        CFI (cfiCond53) CFA_SP SP+-5
        CFI Block cfiCond54 Using cfiCommon0
        CFI (cfiCond54) NoFunction
        CFI (cfiCond54) Conditional ??CrossCallReturnLabel_43
        CFI (cfiCond54) DPL0 Frame(CFA_SP, 4)
        CFI (cfiCond54) DPH0 Frame(CFA_SP, 5)
        CFI (cfiCond54) CFA_SP SP+-5
        CFI Block cfiPicker55 Using cfiCommon1
        CFI (cfiPicker55) NoFunction
        CFI (cfiPicker55) Picker
        MOV     DPTR,#rbuf
        MOVX    A,@DPTR
        MOV     R2,A
        INC     DPTR
        MOVX    A,@DPTR
        MOV     R3,A
        RET
        CFI EndBlock cfiCond44
        CFI EndBlock cfiCond45
        CFI EndBlock cfiCond46
        CFI EndBlock cfiCond47
        CFI EndBlock cfiCond48
        CFI EndBlock cfiCond49
        CFI EndBlock cfiCond50
        CFI EndBlock cfiCond51
        CFI EndBlock cfiCond52
        CFI EndBlock cfiCond53
        CFI EndBlock cfiCond54
        CFI EndBlock cfiPicker55
//  693 /*********************************************************************
//  694  * @fn      SampleApp_SPI
//  695  *
//  696  * @brief   Get shortaddr and sent to UART
//  697             这个函数主要是设备启动时显示自己的短地址
//  698  *
//  699  * @param   none
//  700  *
//  701  * @return  none
//  702  */

        RSEG BANKED_CODE:CODE:NOROOT(0)
//  703 void SampleApp_SPI(void)
SampleApp_SPI:
        CFI Block cfiBlock56 Using cfiCommon0
        CFI Function SampleApp_SPI
//  704 {
        FUNCALL SampleApp_SPI, HalUARTWrite
        LOCFRAME ISTACK, 0, STACK
        LOCFRAME PSTACK, 0, STACK
        LOCFRAME XSTACK, 38, STACK
        LOCFRAME IOVERLAY, 0, STATIC
        LOCFRAME DOVERLAY, 0, STATIC
        ARGFRAME ISTACK, 0, STACK
        ARGFRAME PSTACK, 0, STACK
        ARGFRAME XSTACK, 38, STACK
        ARGFRAME IOVERLAY, 0, STATIC
        ARGFRAME DOVERLAY, 0, STATIC
        FUNCALL SampleApp_SPI, NLME_GetShortAddr
        LOCFRAME ISTACK, 0, STACK
        LOCFRAME PSTACK, 0, STACK
        LOCFRAME XSTACK, 38, STACK
        LOCFRAME IOVERLAY, 0, STATIC
        LOCFRAME DOVERLAY, 0, STATIC
        ARGFRAME ISTACK, 0, STACK
        ARGFRAME PSTACK, 0, STACK
        ARGFRAME XSTACK, 38, STACK
        ARGFRAME IOVERLAY, 0, STATIC
        ARGFRAME DOVERLAY, 0, STATIC
        FUNCALL SampleApp_SPI, hextoword1
        LOCFRAME ISTACK, 0, STACK
        LOCFRAME PSTACK, 0, STACK
        LOCFRAME XSTACK, 38, STACK
        LOCFRAME IOVERLAY, 0, STATIC
        LOCFRAME DOVERLAY, 0, STATIC
        ARGFRAME ISTACK, 0, STACK
        ARGFRAME PSTACK, 0, STACK
        ARGFRAME XSTACK, 38, STACK
        ARGFRAME IOVERLAY, 0, STATIC
        ARGFRAME DOVERLAY, 0, STATIC
        FUNCALL SampleApp_SPI, hextoword2
        LOCFRAME ISTACK, 0, STACK
        LOCFRAME PSTACK, 0, STACK
        LOCFRAME XSTACK, 38, STACK
        LOCFRAME IOVERLAY, 0, STATIC
        LOCFRAME DOVERLAY, 0, STATIC
        ARGFRAME ISTACK, 0, STACK
        ARGFRAME PSTACK, 0, STACK
        ARGFRAME XSTACK, 38, STACK
        ARGFRAME IOVERLAY, 0, STATIC
        ARGFRAME DOVERLAY, 0, STATIC
        FUNCALL SampleApp_SPI, hextoword1
        LOCFRAME ISTACK, 0, STACK
        LOCFRAME PSTACK, 0, STACK
        LOCFRAME XSTACK, 38, STACK
        LOCFRAME IOVERLAY, 0, STATIC
        LOCFRAME DOVERLAY, 0, STATIC
        ARGFRAME ISTACK, 0, STACK
        ARGFRAME PSTACK, 0, STACK
        ARGFRAME XSTACK, 38, STACK
        ARGFRAME IOVERLAY, 0, STATIC
        ARGFRAME DOVERLAY, 0, STATIC
        FUNCALL SampleApp_SPI, hextoword2
        LOCFRAME ISTACK, 0, STACK
        LOCFRAME PSTACK, 0, STACK
        LOCFRAME XSTACK, 38, STACK
        LOCFRAME IOVERLAY, 0, STATIC
        LOCFRAME DOVERLAY, 0, STATIC
        ARGFRAME ISTACK, 0, STACK
        ARGFRAME PSTACK, 0, STACK
        ARGFRAME XSTACK, 38, STACK
        ARGFRAME IOVERLAY, 0, STATIC
        ARGFRAME DOVERLAY, 0, STATIC
        FUNCALL SampleApp_SPI, HalUARTWrite
        LOCFRAME ISTACK, 0, STACK
        LOCFRAME PSTACK, 0, STACK
        LOCFRAME XSTACK, 38, STACK
        LOCFRAME IOVERLAY, 0, STATIC
        LOCFRAME DOVERLAY, 0, STATIC
        ARGFRAME ISTACK, 0, STACK
        ARGFRAME PSTACK, 0, STACK
        ARGFRAME XSTACK, 38, STACK
        ARGFRAME IOVERLAY, 0, STATIC
        ARGFRAME DOVERLAY, 0, STATIC
        MOV     A,#-0xa
        LCALL   ?BANKED_ENTER_XDATA
        CFI DPH0 load(1, XDATA, add(CFA_XSP16, literal(-1)))
        CFI DPL0 load(1, XDATA, add(CFA_XSP16, literal(-2)))
        CFI ?BRET_EXT load(1, XDATA, add(CFA_XSP16, literal(-3)))
        CFI ?RET_HIGH load(1, XDATA, add(CFA_XSP16, literal(-4)))
        CFI ?RET_LOW load(1, XDATA, add(CFA_XSP16, literal(-5)))
        CFI R7 load(1, XDATA, add(CFA_XSP16, literal(-6)))
        CFI V1 load(1, XDATA, add(CFA_XSP16, literal(-7)))
        CFI V0 load(1, XDATA, add(CFA_XSP16, literal(-8)))
        CFI VB load(1, XDATA, add(CFA_XSP16, literal(-9)))
        CFI R6 load(1, XDATA, add(CFA_XSP16, literal(-10)))
        CFI CFA_SP SP+0
        CFI CFA_XSP16 add(XSP16, 10)
        ; Saved register size: 10
        ; Auto size: 28
        MOV     A,#-0x1c
        LCALL   ?ALLOC_XSTACK8
        CFI CFA_XSP16 add(XSP16, 38)
//  705   uint8 str_1[ ]="my short address is:";
        MOV     A,#0x7
        LCALL   ?XSTACK_DISP0_8
        MOV     R4,DPL
        MOV     R5,DPH
        MOV     DPH,#((`?<Constant "my short address is:">` >> 8) & 0xff)
        MOV     DPL,#(`?<Constant "my short address is:">` & 0xff)
        MOV     A,#0x15
        LCALL   ?MOVE_LONG8_XDATA_XDATA
//  706   HalUARTWrite(SERIAL_APP_PORT,&str_1[0],20);
        ; Setup parameters for call to function HalUARTWrite
        MOV     R4,#0x14
        MOV     R5,A
        MOV     A,#0x7
        LCALL   ?XSTACK_DISP0_8
        MOV     R2,DPL
        MOV     R3,DPH
        MOV     R1,#0x0
        LCALL   ??HalUARTWrite?relay
//  707   //HalUARTWriteISR(&str_1[0], 20);  
//  708   uint16 short_ddr;
//  709   uint8 short_ddr_H;
//  710   uint8 short_ddr_L;
//  711   uint8 shortaddr[7];
//  712   uint8 *pointer1;
//  713 
//  714   short_ddr=NLME_GetShortAddr();
        ; Setup parameters for call to function NLME_GetShortAddr
        LCALL   ??NLME_GetShortAddr?relay
        MOV     ?V0 + 1,R3
//  715   short_ddr_H=(uint8)((short_ddr&0xff00)>>8);
        MOV     R6,?V0 + 1
//  716   short_ddr_L=(uint8)short_ddr;
        MOV     A,R2
        MOV     R7,A
//  717 
//  718   shortaddr[0]=48;
        MOV     A,#0x30
        MOV     DPL,?XSP + 0
        MOV     DPH,?XSP + 1
        MOVX    @DPTR,A
//  719   shortaddr[1]=120;
        MOV     A,#0x1
        LCALL   ?XSTACK_DISP0_8
        MOV     A,#0x78
        MOVX    @DPTR,A
//  720   shortaddr[2]=hextoword1(short_ddr_H);
        ; Setup parameters for call to function hextoword1
        MOV     A,R6
        MOV     R1,A
        LCALL   ??hextoword1?relay
        MOV     A,#0x2
        LCALL   ?XSTACK_DISP0_8
        MOV     A,R1
        MOVX    @DPTR,A
//  721   shortaddr[3]=hextoword2(short_ddr_H);
        ; Setup parameters for call to function hextoword2
        MOV     A,R6
        MOV     R1,A
        LCALL   ??hextoword2?relay
        MOV     A,#0x3
        LCALL   ?XSTACK_DISP0_8
        MOV     A,R1
        MOVX    @DPTR,A
//  722   shortaddr[4]=hextoword1(short_ddr_L);
        ; Setup parameters for call to function hextoword1
        MOV     A,R7
        MOV     R1,A
        LCALL   ??hextoword1?relay
        MOV     A,#0x4
        LCALL   ?XSTACK_DISP0_8
        MOV     A,R1
        MOVX    @DPTR,A
//  723   shortaddr[5]=hextoword2(short_ddr_L);
        ; Setup parameters for call to function hextoword2
        MOV     A,R7
        MOV     R1,A
        LCALL   ??hextoword2?relay
        MOV     A,#0x5
        LCALL   ?XSTACK_DISP0_8
        MOV     A,R1
        MOVX    @DPTR,A
//  724   shortaddr[6]='\n';
        MOV     A,#0x6
        LCALL   ?XSTACK_DISP0_8
        MOV     A,#0xa
        MOVX    @DPTR,A
//  725   pointer1=&shortaddr[0];
//  726   HalUARTWrite(SERIAL_APP_PORT,pointer1,7);
        ; Setup parameters for call to function HalUARTWrite
        MOV     R4,#0x7
        MOV     R5,#0x0
        MOV     DPL,?XSP + 0
        MOV     DPH,?XSP + 1
        MOV     R2,DPL
        MOV     R3,DPH
        MOV     R1,#0x0
        LCALL   ??HalUARTWrite?relay
//  727 }
        MOV     A,#0x1c
        LJMP    ??Subroutine60_0 & 0xFFFF
        CFI EndBlock cfiBlock56
//  728 
//  729 /*********************************************************************
//  730  * @fn      hextoword
//  731  *
//  732  * @brief   十六进制转字符函数 (SampleApp.c)  这两个函数由网友提供.
//  733  *
//  734  * @param   none
//  735  *
//  736  * @return  none
//  737  */

        RSEG BANKED_CODE:CODE:NOROOT(0)
//  738 uint8 hextoword1(uint8 t )
hextoword1:
        CFI Block cfiBlock57 Using cfiCommon0
        CFI Function hextoword1
//  739 {
        ; Saved register size: 0
        ; Auto size: 0
//  740   uint8 abc;
//  741   uint8 cba;
//  742   uint8 xx1;
//  743   abc=t;
//  744   cba=0xf0;
//  745   abc=(abc&cba)>>4;
        MOV     A,R1
        SWAP    A
        ANL     A,#0xf
        MOV     R2,A
//  746   if(abc<10)
        CLR     C
        SUBB    A,#0xa
        JNC     ??hextoword1_0
//  747   {
//  748     xx1=abc+48;
        MOV     A,#0x30
        SJMP    ??hextoword1_1
//  749   }
//  750   else
//  751   {
//  752     xx1=abc+55;
??hextoword1_0:
        MOV     A,#0x37
        CFI EndBlock cfiBlock57
//  753   }
??hextoword1_1:
        REQUIRE ?Subroutine49
        ; // Fall through to label ?Subroutine49
//  754   return xx1;
//  755 }

        RSEG BANKED_CODE:CODE:NOROOT(0)
?Subroutine49:
        CFI Block cfiBlock58 Using cfiCommon0
        CFI NoFunction
        ADD     A,R2
        MOV     R1,A
        LJMP    ?BRET
        CFI EndBlock cfiBlock58

        RSEG BANKED_CODE:CODE:NOROOT(0)
//  756 uint8 hextoword2(uint8 t)
hextoword2:
        CFI Block cfiBlock59 Using cfiCommon0
        CFI Function hextoword2
//  757 {
        ; Saved register size: 0
        ; Auto size: 0
//  758   uint8 abc;
//  759   uint8 cba;
//  760   uint8 xx2;
//  761   abc=t;
//  762   cba=0x0f;
//  763   abc=abc&cba;
        MOV     A,#0xf
        ANL     A,R1
        MOV     R2,A
//  764   if(abc<10)
        CLR     C
        SUBB    A,#0xa
        JNC     ??hextoword2_0
//  765   {
//  766     xx2=abc+48;
        MOV     A,#0x30
        SJMP    ??hextoword2_1
//  767   }
//  768   else
//  769   {
//  770     xx2=abc+55;
??hextoword2_0:
        MOV     A,#0x37
//  771   }
??hextoword2_1:
        SJMP    ?Subroutine49
        CFI EndBlock cfiBlock59
//  772   return xx2;
//  773 }
//  774 
//  775 
//  776 /*********************************************************************
//  777  * @fn      comparebuf(uint8 *dat)
//  778  *
//  779  * @brief   匹配字符，并且提取四位作为PANID
//  780  *
//  781  * @param   *dat   
//  782              the data from uart
//  783  *
//  784  * @return  none
//  785  */

        RSEG BANKED_CODE:CODE:NOROOT(0)
//  786 void comparebuf(uint8 *dat)
comparebuf:
        CFI Block cfiBlock60 Using cfiCommon0
        CFI Function comparebuf
//  787 {
        FUNCALL comparebuf, Set_Panid
        LOCFRAME ISTACK, 0, STACK
        LOCFRAME PSTACK, 0, STACK
        LOCFRAME XSTACK, 15, STACK
        LOCFRAME IOVERLAY, 0, STATIC
        LOCFRAME DOVERLAY, 0, STATIC
        ARGFRAME ISTACK, 0, STACK
        ARGFRAME PSTACK, 0, STACK
        ARGFRAME XSTACK, 15, STACK
        ARGFRAME IOVERLAY, 0, STATIC
        ARGFRAME DOVERLAY, 0, STATIC
        FUNCALL comparebuf, osal_mem_free
        LOCFRAME ISTACK, 0, STACK
        LOCFRAME PSTACK, 0, STACK
        LOCFRAME XSTACK, 15, STACK
        LOCFRAME IOVERLAY, 0, STATIC
        LOCFRAME DOVERLAY, 0, STATIC
        ARGFRAME ISTACK, 0, STACK
        ARGFRAME PSTACK, 0, STACK
        ARGFRAME XSTACK, 15, STACK
        ARGFRAME IOVERLAY, 0, STATIC
        ARGFRAME DOVERLAY, 0, STATIC
        MOV     A,#-0xc
        LCALL   ?BANKED_ENTER_XDATA
        CFI DPH0 load(1, XDATA, add(CFA_XSP16, literal(-1)))
        CFI DPL0 load(1, XDATA, add(CFA_XSP16, literal(-2)))
        CFI ?BRET_EXT load(1, XDATA, add(CFA_XSP16, literal(-3)))
        CFI ?RET_HIGH load(1, XDATA, add(CFA_XSP16, literal(-4)))
        CFI ?RET_LOW load(1, XDATA, add(CFA_XSP16, literal(-5)))
        CFI R7 load(1, XDATA, add(CFA_XSP16, literal(-6)))
        CFI V3 load(1, XDATA, add(CFA_XSP16, literal(-7)))
        CFI V2 load(1, XDATA, add(CFA_XSP16, literal(-8)))
        CFI V1 load(1, XDATA, add(CFA_XSP16, literal(-9)))
        CFI V0 load(1, XDATA, add(CFA_XSP16, literal(-10)))
        CFI VB load(1, XDATA, add(CFA_XSP16, literal(-11)))
        CFI R6 load(1, XDATA, add(CFA_XSP16, literal(-12)))
        CFI CFA_SP SP+0
        CFI CFA_XSP16 add(XSP16, 12)
        ; Saved register size: 12
        ; Auto size: 3
        MOV     A,#-0x3
        LCALL   ?ALLOC_XSTACK8
        CFI CFA_XSP16 add(XSP16, 15)
//  788   uint8 predict[3]={103,97,111};
        MOV     DPL,?XSP + 0
        MOV     DPH,?XSP + 1
        MOV     R4,DPL
        MOV     R5,DPH
        MOV     DPH,#((`?<Constant {103, 97, 111}>` >> 8) & 0xff)
        MOV     DPL,#(`?<Constant {103, 97, 111}>` & 0xff)
        MOV     A,#0x3
        LCALL   ?MOVE_LONG8_XDATA_XDATA
//  789   uint8 *ppredict=&predict[0];
        MOV     DPL,?XSP + 0
        MOV     DPH,?XSP + 1
        MOV     R0,DPL
        MOV     R1,DPH
//  790   uint8 i; 
//  791   //uint8 7;
//  792   if(rxlen!=7)//比较从上位机来的数据长度！！
        MOV     DPTR,#rxlen
        MOVX    A,@DPTR
        XRL     A,#0x7
        JNZ     ??CrossCallReturnLabel_115
//  793   return;
//  794   
//  795   uint16 newpanid=0,temp=0;
        LCALL   ?Subroutine29 & 0xFFFF
//  796   
//  797 
//  798   for ( i = 0; i <9; i++ )//这几个空过去是因为有设备ID。
//  799   {
//  800    *dat++ ;
//  801   }
//  802   
//  803   for ( i = 0; i <3; i++ )
//  804   {
//  805    if(*dat++ == *ppredict++);
??CrossCallReturnLabel_66:
        LCALL   ?Subroutine16 & 0xFFFF
//  806    else
//  807        return;
//  808   }  
??CrossCallReturnLabel_29:
        JNZ     ??CrossCallReturnLabel_115
        INC     ?V0 + 2
        MOV     A,?V0 + 2
        CLR     C
        SUBB    A,#0x3
        JC      ??CrossCallReturnLabel_66
//  809   
//  810   for ( i =0; i <4; i++ )
        MOV     ?V0 + 2,R4
//  811   { 
//  812    if(*dat>=48&&*dat<=57)
??comparebuf_0:
        MOV     DPL,R2
        MOV     DPH,R3
        MOVX    A,@DPTR
        MOV     ?V0 + 0,A
        CLR     C
        SUBB    A,#0x30
        JC      ??comparebuf_1
        MOV     A,?V0 + 0
        CLR     C
        SUBB    A,#0x3a
        JNC     ??comparebuf_1
//  813      {
//  814       temp=(*dat)-48;    
        MOV     A,#-0x30
        SJMP    ??comparebuf_2
//  815      }
//  816    else if(*dat>=97&&*dat<=102)
??comparebuf_1:
        MOV     A,?V0 + 0
        CLR     C
        SUBB    A,#0x61
        MOV     A,?V0 + 0
        JC      ??comparebuf_3
        CLR     C
        SUBB    A,#0x67
        JNC     ??CrossCallReturnLabel_115
//  817      {
//  818       temp=(*dat)-87;
        MOV     A,#-0x57
        SJMP    ??comparebuf_2
//  819      }
//  820     else if(*dat>=65&&*dat<=70)
??comparebuf_3:
        CLR     C
        SUBB    A,#0x41
        JC      ??CrossCallReturnLabel_115
        MOV     A,?V0 + 0
        CLR     C
        SUBB    A,#0x47
        JNC     ??CrossCallReturnLabel_115
//  821      {
//  822       temp=(*dat)-55;
        MOV     A,#-0x37
//  823      }
//  824    else
//  825      return;
//  826       *dat++;
//  827      temp=temp<<((3-i)*4);
//  828      newpanid|=temp;
//  829   } 
??comparebuf_2:
        LCALL   ?Subroutine23 & 0xFFFF
??CrossCallReturnLabel_56:
        LCALL   ?S_SHL
        LCALL   ?Subroutine33 & 0xFFFF
??CrossCallReturnLabel_70:
        JC      ??comparebuf_0
//  830   
//  831   Set_Panid(newpanid);
        ; Setup parameters for call to function Set_Panid
        MOV     A,R4
        MOV     R2,A
        MOV     A,R5
        MOV     R3,A
        LCALL   ??Set_Panid?relay
//  832   osal_mem_free( rbuf );  //必须释放内存,不然造成溢出!
        ; Setup parameters for call to function osal_mem_free
        LCALL   ??Subroutine64_0 & 0xFFFF
//  833   rbuf_Free_Flag=1;//释放内存标志位
//  834 }
??CrossCallReturnLabel_115:
        MOV     A,#0x3
        CFI EndBlock cfiBlock60
        REQUIRE ?Subroutine44
        ; // Fall through to label ?Subroutine44

        RSEG BANKED_CODE:CODE:NOROOT(0)
?Subroutine44:
        CFI Block cfiBlock61 Using cfiCommon0
        CFI NoFunction
        CFI CFA_SP SP+0
        CFI CFA_XSP16 add(XSP16, 15)
        CFI VB load(1, XDATA, add(CFA_XSP16, literal(-11)))
        CFI DPL0 load(1, XDATA, add(CFA_XSP16, literal(-2)))
        CFI DPH0 load(1, XDATA, add(CFA_XSP16, literal(-1)))
        CFI R6 load(1, XDATA, add(CFA_XSP16, literal(-12)))
        CFI R7 load(1, XDATA, add(CFA_XSP16, literal(-6)))
        CFI V0 load(1, XDATA, add(CFA_XSP16, literal(-10)))
        CFI V1 load(1, XDATA, add(CFA_XSP16, literal(-9)))
        CFI V2 load(1, XDATA, add(CFA_XSP16, literal(-8)))
        CFI V3 load(1, XDATA, add(CFA_XSP16, literal(-7)))
        CFI ?BRET_EXT load(1, XDATA, add(CFA_XSP16, literal(-3)))
        CFI ?RET_HIGH load(1, XDATA, add(CFA_XSP16, literal(-4)))
        CFI ?RET_LOW load(1, XDATA, add(CFA_XSP16, literal(-5)))
        CFI Invalid
        LCALL   ?DEALLOC_XSTACK8
        CFI EndBlock cfiBlock61
        REQUIRE ??Subroutine54_0
        ; // Fall through to label ??Subroutine54_0

        RSEG BANKED_CODE:CODE:NOROOT(0)
??Subroutine54_0:
        CFI Block cfiBlock62 Using cfiCommon0
        CFI NoFunction
        CFI CFA_SP SP+0
        CFI CFA_XSP16 add(XSP16, 12)
        CFI VB load(1, XDATA, add(CFA_XSP16, literal(-11)))
        CFI DPL0 load(1, XDATA, add(CFA_XSP16, literal(-2)))
        CFI DPH0 load(1, XDATA, add(CFA_XSP16, literal(-1)))
        CFI R6 load(1, XDATA, add(CFA_XSP16, literal(-12)))
        CFI R7 load(1, XDATA, add(CFA_XSP16, literal(-6)))
        CFI V0 load(1, XDATA, add(CFA_XSP16, literal(-10)))
        CFI V1 load(1, XDATA, add(CFA_XSP16, literal(-9)))
        CFI V2 load(1, XDATA, add(CFA_XSP16, literal(-8)))
        CFI V3 load(1, XDATA, add(CFA_XSP16, literal(-7)))
        CFI ?BRET_EXT load(1, XDATA, add(CFA_XSP16, literal(-3)))
        CFI ?RET_HIGH load(1, XDATA, add(CFA_XSP16, literal(-4)))
        CFI ?RET_LOW load(1, XDATA, add(CFA_XSP16, literal(-5)))
        MOV     R7,#0x4
        LJMP    ?BANKED_LEAVE_XDATA
        CFI EndBlock cfiBlock62
//  835 
//  836 
//  837 
//  838 
//  839 //设定PANID号

        RSEG BANKED_CODE:CODE:NOROOT(0)
//  840 void Set_Panid(uint16 u16NewPaind)
Set_Panid:
        CFI Block cfiBlock63 Using cfiCommon0
        CFI Function Set_Panid
//  841 {
        FUNCALL Set_Panid, osal_nv_item_init
        LOCFRAME ISTACK, 0, STACK
        LOCFRAME PSTACK, 0, STACK
        LOCFRAME XSTACK, 14, STACK
        LOCFRAME IOVERLAY, 0, STATIC
        LOCFRAME DOVERLAY, 0, STATIC
        ARGFRAME ISTACK, 0, STACK
        ARGFRAME PSTACK, 0, STACK
        ARGFRAME XSTACK, 14, STACK
        ARGFRAME IOVERLAY, 0, STATIC
        ARGFRAME DOVERLAY, 0, STATIC
        FUNCALL Set_Panid, osal_nv_write
        LOCFRAME ISTACK, 0, STACK
        LOCFRAME PSTACK, 0, STACK
        LOCFRAME XSTACK, 16, STACK
        LOCFRAME IOVERLAY, 0, STATIC
        LOCFRAME DOVERLAY, 0, STATIC
        ARGFRAME ISTACK, 0, STACK
        ARGFRAME PSTACK, 0, STACK
        ARGFRAME XSTACK, 16, STACK
        ARGFRAME IOVERLAY, 0, STATIC
        ARGFRAME DOVERLAY, 0, STATIC
        FUNCALL Set_Panid, osal_nv_item_init
        LOCFRAME ISTACK, 0, STACK
        LOCFRAME PSTACK, 0, STACK
        LOCFRAME XSTACK, 14, STACK
        LOCFRAME IOVERLAY, 0, STATIC
        LOCFRAME DOVERLAY, 0, STATIC
        ARGFRAME ISTACK, 0, STACK
        ARGFRAME PSTACK, 0, STACK
        ARGFRAME XSTACK, 14, STACK
        ARGFRAME IOVERLAY, 0, STATIC
        ARGFRAME DOVERLAY, 0, STATIC
        FUNCALL Set_Panid, osal_nv_write
        LOCFRAME ISTACK, 0, STACK
        LOCFRAME PSTACK, 0, STACK
        LOCFRAME XSTACK, 16, STACK
        LOCFRAME IOVERLAY, 0, STATIC
        LOCFRAME DOVERLAY, 0, STATIC
        ARGFRAME ISTACK, 0, STACK
        ARGFRAME PSTACK, 0, STACK
        ARGFRAME XSTACK, 16, STACK
        ARGFRAME IOVERLAY, 0, STATIC
        ARGFRAME DOVERLAY, 0, STATIC
        FUNCALL Set_Panid, NLME_UpdateNV
        LOCFRAME ISTACK, 0, STACK
        LOCFRAME PSTACK, 0, STACK
        LOCFRAME XSTACK, 12, STACK
        LOCFRAME IOVERLAY, 0, STATIC
        LOCFRAME DOVERLAY, 0, STATIC
        ARGFRAME ISTACK, 0, STACK
        ARGFRAME PSTACK, 0, STACK
        ARGFRAME XSTACK, 12, STACK
        ARGFRAME IOVERLAY, 0, STATIC
        ARGFRAME DOVERLAY, 0, STATIC
        MOV     A,#-0xa
        LCALL   ?BANKED_ENTER_XDATA
        CFI DPH0 load(1, XDATA, add(CFA_XSP16, literal(-1)))
        CFI DPL0 load(1, XDATA, add(CFA_XSP16, literal(-2)))
        CFI ?BRET_EXT load(1, XDATA, add(CFA_XSP16, literal(-3)))
        CFI ?RET_HIGH load(1, XDATA, add(CFA_XSP16, literal(-4)))
        CFI ?RET_LOW load(1, XDATA, add(CFA_XSP16, literal(-5)))
        CFI R7 load(1, XDATA, add(CFA_XSP16, literal(-6)))
        CFI V1 load(1, XDATA, add(CFA_XSP16, literal(-7)))
        CFI V0 load(1, XDATA, add(CFA_XSP16, literal(-8)))
        CFI VB load(1, XDATA, add(CFA_XSP16, literal(-9)))
        CFI R6 load(1, XDATA, add(CFA_XSP16, literal(-10)))
        CFI CFA_SP SP+0
        CFI CFA_XSP16 add(XSP16, 10)
        ; Saved register size: 10
        ; Auto size: 2
        MOV     A,#-0x2
        LCALL   ?ALLOC_XSTACK8
        CFI CFA_XSP16 add(XSP16, 12)
        LCALL   ?Subroutine3 & 0xFFFF
//  842    uint8 u8BackCode;
//  843   
//  844     if ( osal_nv_item_init( ZCD_NV_PANID1,2,&u16NewPaind ) == ZSUCCESS )  
??CrossCallReturnLabel_93:
        LCALL   ?PUSH_XSTACK_I_TWO
        CFI CFA_XSP16 add(XSP16, 14)
        MOV     R4,#0x2
        MOV     R5,#0x0
        MOV     R2,#-0x7b
        LCALL   ??Subroutine57_0 & 0xFFFF
??CrossCallReturnLabel_100:
        LCALL   ?DEALLOC_XSTACK8
        CFI CFA_XSP16 add(XSP16, 12)
        MOV     A,R1
        JNZ     ??Set_Panid_0
//  845     {
//  846            osal_nv_write(ZCD_NV_PANID1,0,2,&u16NewPaind);
        ; Setup parameters for call to function osal_nv_write
        MOV     R0,#?V0 + 0
        LCALL   ?PUSH_XSTACK_I_TWO
        CFI CFA_XSP16 add(XSP16, 14)
        MOV     ?V0 + 0,#0x2
        MOV     ?V0 + 1,#0x0
        MOV     R0,#?V0 + 0
        LCALL   ?PUSH_XSTACK_I_TWO
        CFI CFA_XSP16 add(XSP16, 16)
        MOV     R4,#0x0
        MOV     R5,#0x0
        MOV     R2,#-0x7b
        LCALL   ??Subroutine62_0 & 0xFFFF
//  847     }
??CrossCallReturnLabel_107:
        LCALL   ?DEALLOC_XSTACK8
        CFI CFA_XSP16 add(XSP16, 12)
//  848     if ( osal_nv_item_init( ZCD_NV_PANID,2,&u16NewPaind) == ZSUCCESS )  
??Set_Panid_0:
        ; Setup parameters for call to function osal_nv_item_init
        MOV     DPL,?XSP + 0
        MOV     DPH,?XSP + 1
        MOV     ?V0 + 0,DPL
        MOV     ?V0 + 1,DPH
        MOV     R0,#?V0 + 0
        LCALL   ?PUSH_XSTACK_I_TWO
        CFI CFA_XSP16 add(XSP16, 14)
        MOV     R4,#0x2
        MOV     R5,#0x0
        MOV     R2,#-0x7d
        MOV     R3,#0x0
        LCALL   ??Subroutine58_0 & 0xFFFF
??CrossCallReturnLabel_104:
        LCALL   ?DEALLOC_XSTACK8
        CFI CFA_XSP16 add(XSP16, 12)
        MOV     A,R1
        JNZ     ??Set_Panid_1
//  849     {
//  850        u8BackCode=osal_nv_write(ZCD_NV_PANID,0,2,&u16NewPaind);
        ; Setup parameters for call to function osal_nv_write
        MOV     R0,#?V0 + 0
        LCALL   ?PUSH_XSTACK_I_TWO
        CFI CFA_XSP16 add(XSP16, 14)
        MOV     ?V0 + 0,#0x2
        MOV     ?V0 + 1,#0x0
        MOV     R0,#?V0 + 0
        LCALL   ?PUSH_XSTACK_I_TWO
        CFI CFA_XSP16 add(XSP16, 16)
        MOV     R4,#0x0
        MOV     R5,#0x0
        MOV     R2,#-0x7d
        MOV     R3,#0x0
        LCALL   ??Subroutine63_0 & 0xFFFF
//  851     }
??CrossCallReturnLabel_112:
        LCALL   ?DEALLOC_XSTACK8
        CFI CFA_XSP16 add(XSP16, 12)
        MOV     A,R1
        MOV     R6,A
//  852     
//  853     if(u8BackCode==ZSUCCESS)//成功
??Set_Panid_1:
        MOV     A,R6
        JNZ     ??Set_Panid_2
//  854     {
//  855        NLME_UpdateNV(0x01);
        ; Setup parameters for call to function NLME_UpdateNV
        MOV     R1,#0x1
        LCALL   ??NLME_UpdateNV?relay
//  856             //提示将网络相关信息写入Flash中，这段代码好像和函数调用OSAL_NV_WRITE()重叠，但不可少
//  857        HAL_SYSTEM_RESET();//重启系统
        CLR     0xa8.7
        MOV     0xc9,#-0x55
        MOV     0xc9,#0x5b
??Set_Panid_3:
        SJMP    ??Set_Panid_3
//  858     }
//  859 }
??Set_Panid_2:
        SJMP    ??Subroutine55_0
        CFI EndBlock cfiBlock63
        REQUIRE _A_IEN0
        REQUIRE WDCTL
//  860 
//  861 
//  862 
//  863 //读取PAN ID 
//  864 void ReadPanidbuf(uint8 *dat)
//  865 {
//  866   uint8 predict[8]={103,97,111,112,97,110,105,100};  //gaopanid
//  867   //以上为匹配字符  
//  868   uint8 *ppredict=&predict[0];
//  869   uint8 i; 
//  870   uint16 short_ddr;
//  871   uint8 short_ddr_H;
//  872   uint8 short_ddr_L;
//  873   uint8 shortaddr[7];
//  874   uint8 *pointer1; 
//  875   
//  876   if(rxlen!=8)//比较从上位机来的数据长度！！
//  877   return;
//  878   
//  879 
//  880   for ( i = 0; i <9; i++ )//这几个空过去是因为有设备ID。
//  881   {
//  882    *dat++ ;
//  883   }
//  884   
//  885   for ( i = 0; i <8; i++ )//进行数据匹配
//  886   {
//  887    if(*dat++ == *ppredict++);
//  888    else
//  889        return;
//  890   }    
//  891   //下面代码类似于短地址的获得，所以引用了获得短地址的代码
//  892   //名字没有改，但是因为都是局部变量所以没有互相影响
//  893   osal_nv_read(ZCD_NV_PANID,0,2,&short_ddr);
//  894   short_ddr_H=(uint8)((short_ddr&0xff00)>>8);
//  895   short_ddr_L=(uint8)short_ddr;
//  896   shortaddr[0]=48;
//  897   shortaddr[1]=120;
//  898   shortaddr[2]=hextoword1(short_ddr_H);
//  899   shortaddr[3]=hextoword2(short_ddr_H);
//  900   shortaddr[4]=hextoword1(short_ddr_L);
//  901   shortaddr[5]=hextoword2(short_ddr_L);
//  902   shortaddr[6]='\n';
//  903   pointer1=&shortaddr[0];
//  904   HalUARTWrite(SERIAL_APP_PORT,pointer1,7);
//  905   
//  906   osal_mem_free( rbuf );  //必须释放内存,不然造成溢出!
//  907   rbuf_Free_Flag=1;
//  908 }
//  909 
//  910 /*********************************************************************
//  911  * @fn      SampleApp_SPI_SendData
//  912  *
//  913  * @brief   sent the uart buffer data to the air
//  914  *详细说明：函数的功能是如果uart的buf中有数据，则通过这个函数讲数据发送出去（通过天线发送到空中）
//  915 
//  916             1、如果这个设备启动的时候为协调器，则以广播的形式发送到所有其他设备
//  917 
//  918             2、如果这个设备不是协调器，即路由器，则以单播的形式发送到协调器
//  919 
//  920   注意：用完之后要释放内存
//  921 
//  922  * @param   *buf   the dat
//  923             len    the length of the dat 
//  924  *
//  925  * @return  none
//  926  */
//  927 void SampleApp_SPI_SendData( uint8 *buf, uint8 len )
//  928 {
//  929   if ( devStartMode == MODE_HARD )//如果启动的时候是协调器，则用广播
//  930   {
//  931     SampleApp_SPI_SendData_DstAddr.addrMode = (afAddrMode_t)AddrBroadcast;
//  932     SampleApp_SPI_SendData_DstAddr.endPoint = SAMPLEAPP_ENDPOINT;
//  933     SampleApp_SPI_SendData_DstAddr.addr.shortAddr = 0xFFFF;  
//  934   }
//  935   else//其它设备类型则用单播
//  936   {
//  937     
//  938     SampleApp_SPI_SendData_DstAddr.addrMode = (afAddrMode_t)Addr16Bit;
//  939     SampleApp_SPI_SendData_DstAddr.endPoint = SAMPLEAPP_ENDPOINT;
//  940     SampleApp_SPI_SendData_DstAddr.addr.shortAddr = 0x0000;  
//  941   }
//  942   
//  943   if ( AF_DataRequest   ( &SampleApp_SPI_SendData_DstAddr,
//  944                          (endPointDesc_t *)&SampleApp_epDesc,
//  945                           SAMPLEAPP_FLASH_CLUSTERID,
//  946                           len, buf,
//  947                           &SampleApp_TransID, 
//  948                           0, 
//  949                           AF_DEFAULT_RADIUS ) == afStatus_SUCCESS )
//  950   {
//  951     osal_mem_free( rbuf );  //必须释放内存,不然造成溢出!
//  952   }
//  953   else
//  954   {
//  955     osal_mem_free( rbuf ); //必须释放内存,不然造成溢出!    
//  956   }  
//  957 }
//  958 
//  959 /*********************************************************************
//  960  * @fn      ReadID(uint8 *dat)
//  961  *
//  962  * @brief   Get the ID then sent it to PC 匹配字符并读取PANID
//  963  *
//  964  * @param   *dat   
//  965              the data from uart
//  966  *
//  967  * @return  none
//  968  */
//  969 void ReadID(uint8 *dat)
//  970 {
//  971   uint8 predict[5]={103,97,111,105,100};  //gaoid
//  972   //以上为匹配字符  
//  973   uint8 *ppredict=&predict[0];
//  974   uint8 i; 
//  975   
//  976   if(rxlen!=5)//比较从上位机来的数据长度！！
//  977   return;
//  978   
//  979   
//  980   //启用了ID，则在真实数据在ID之后，需要跳过ID进行比较匹配
//  981 
//  982   for ( i = 0; i <9; i++ )//这几个空过去是因为有设备ID。
//  983   {
//  984    *dat++ ;
//  985   }
//  986   
//  987   for ( i = 0; i <5; i++ )//进行数据匹配
//  988   {
//  989    if(*dat++ == *ppredict++);
//  990    else
//  991        return;
//  992   }  
//  993   
//  994   HalUARTWrite(SERIAL_APP_PORT,&IDbuf[0],5);
//  995   osal_mem_free( rbuf );  //必须释放内存,不然造成溢出!
//  996   rbuf_Free_Flag=1;
//  997 }
//  998 
//  999 
// 1000 //匹配字符，设置ID。类似于设置PANID
// 1001 void CompforID(uint8 *dat)
// 1002 {
// 1003   uint8 predict[8]={103,97,111,115,101,116,105,100};
// 1004   uint8 *ppredict=&predict[0];
// 1005   uint8 i; 
// 1006   //uint8 7;
// 1007   if(rxlen!=12)//比较从上位机来的数据长度！！
// 1008   return;
// 1009   
// 1010   uint16 newid=0,temp=0;
// 1011   
// 1012 
// 1013   for ( i = 0; i <9; i++ )//这几个空过去是因为有设备ID。
// 1014   {
// 1015    *dat++ ;
// 1016   }
// 1017   
// 1018   for ( i = 0; i <8; i++ )
// 1019   {
// 1020    if(*dat++ == *ppredict++);
// 1021    else
// 1022        return;
// 1023   }  
// 1024   
// 1025   for ( i =0; i <4; i++ )
// 1026   { 
// 1027    if(*dat>=48&&*dat<=57)
// 1028      {
// 1029       temp=(*dat)-48;    
// 1030      }
// 1031    else if(*dat>=97&&*dat<=102)
// 1032      {
// 1033       temp=(*dat)-87;
// 1034      }
// 1035     else if(*dat>=65&&*dat<=70)
// 1036      {
// 1037       temp=(*dat)-55;
// 1038      }
// 1039    else
// 1040      return;
// 1041    
// 1042       *dat++;
// 1043      temp=temp<<((3-i)*4);
// 1044      newid|=temp;
// 1045   } 
// 1046   
// 1047   Set_id(newid);
// 1048   osal_mem_free( rbuf );  //必须释放内存,不然造成溢出!
// 1049   rbuf_Free_Flag=1;
// 1050 }
// 1051 
// 1052 
// 1053 //设定ID号
// 1054 void Set_id(uint16 u16NewPaind)
// 1055 {
// 1056   
// 1057     if ( osal_nv_item_init( ZCD_NV_ID1,2,&u16NewPaind ) == ZSUCCESS )  
// 1058     {
// 1059            osal_nv_write(ZCD_NV_ID1,0,2,&u16NewPaind);
// 1060     }
// 1061     if ( osal_nv_item_init( ZCD_NV_ID,2,&u16NewPaind) == ZSUCCESS )  
// 1062     {
// 1063            osal_nv_write(ZCD_NV_ID,0,2,&u16NewPaind);
// 1064     }
// 1065      //HAL_SYSTEM_RESET();//重启系统
// 1066 }
// 1067 
// 1068 
// 1069 /*********************************************************************
// 1070  * @fn      CheckToSetTest(uint8 *dat)
// 1071  *
// 1072  * @brief   设定是否启用TEST功能
// 1073  *
// 1074  * @param   *dat   
// 1075              the data from uart
// 1076  *
// 1077  * @return  none
// 1078  */
// 1079 void CheckToSetTest(uint8 *dat)
// 1080 {
// 1081   uint8 predict[4]={103,97,111,36};  //gao$
// 1082   //以上为匹配字符  
// 1083   uint8 *ppredict=&predict[0];
// 1084   uint8 i; 
// 1085   
// 1086   uint8 shortadd1[1];
// 1087   shortadd1[0]='\n'; 
// 1088   
// 1089   uint8 str_1[ ]="Test is open!";
// 1090   uint8 str_2[ ]="Test is close!";
// 1091   
// 1092   if(rxlen!=5)//比较从上位机来的数据长度！！
// 1093   return;
// 1094   
// 1095 
// 1096   for ( i = 0; i <9; i++ )//这几个空过去是因为有设备ID。
// 1097   {
// 1098    *dat++ ;
// 1099   }
// 1100    
// 1101   for ( i = 0; i <4; i++ )//进行数据匹配
// 1102   {
// 1103    if(*dat++ == *ppredict++);
// 1104    else
// 1105        return;
// 1106   }
// 1107   
// 1108   if(*dat==48)//传来的是数据0，则禁止TEST功能
// 1109   {
// 1110     HalUARTWrite(0,&str_2[0],14);
// 1111     
// 1112     HalUARTWrite(0,&shortadd1[0],1);//这个用来显示的换行
// 1113     Set_Test(0);
// 1114   }
// 1115   
// 1116   if(*dat==49)
// 1117   {
// 1118     HalUARTWrite(0,&str_1[0],13);
// 1119     HalUARTWrite(0,&shortadd1[0],1);//这个用来显示的换行
// 1120     Set_Test(1);
// 1121   }
// 1122   
// 1123   osal_mem_free( rbuf );  //必须释放内存,不然造成溢出!
// 1124   rbuf_Free_Flag=1;
// 1125 }
// 1126 
// 1127 //设置是否开启测试功能
// 1128 void Set_Test(uint8 u16NewPaind)//写1或者写0
// 1129 {
// 1130   
// 1131     if ( osal_nv_item_init( ZCD_NV_TEST,1,&u16NewPaind ) == ZSUCCESS )  
// 1132     {
// 1133            osal_nv_write(ZCD_NV_TEST,0,1,&u16NewPaind);
// 1134     }  
// 1135 }
// 1136 
// 1137 
// 1138 
// 1139 //设置是否启用ID
// 1140 void IDISUSE(uint8 *dat)
// 1141 {
// 1142   uint8 predict[4]={103,97,111,35};  //gao#
// 1143   //以上为匹配字符  
// 1144   uint8 *ppredict=&predict[0];
// 1145   uint8 i; 
// 1146   uint8 shortadd1[1];
// 1147   shortadd1[0]='\n'; 
// 1148   uint8 str_1[ ]="ID is used!";
// 1149   uint8 str_2[ ]="ID is not used!";
// 1150   
// 1151   if(rxlen!=5)//比较从上位机来的数据长度！！
// 1152   return;
// 1153   
// 1154   for ( i = 0; i <9; i++ )//这几个空过去是因为有设备ID。
// 1155   {
// 1156    *dat++ ;
// 1157   }
// 1158 
// 1159   
// 1160   for ( i = 0; i <4; i++ )//进行数据匹配
// 1161   {
// 1162    if(*dat++ == *ppredict++);
// 1163    else
// 1164        return;
// 1165   }
// 1166   if(*dat==48)
// 1167   {
// 1168     HalUARTWrite(0,&str_2[0],15);
// 1169     HalUARTWrite(0,&shortadd1[0],1);//这个用来显示的换行
// 1170     ID_Set(0);
// 1171   }
// 1172   if(*dat==49)
// 1173   {
// 1174     HalUARTWrite(0,&str_1[0],11);
// 1175     HalUARTWrite(0,&shortadd1[0],1);//这个用来显示的换行
// 1176     ID_Set(1);
// 1177   }
// 1178   osal_mem_free( rbuf );  //必须释放内存,不然造成溢出!
// 1179   rbuf_Free_Flag=1;
// 1180   
// 1181 }
// 1182 
// 1183 void ID_Set(uint8 u16NewPaind)
// 1184 {
// 1185   
// 1186     if ( osal_nv_item_init( ZCD_NV_IDSET,1,&u16NewPaind ) == ZSUCCESS )  
// 1187     {
// 1188            osal_nv_write(ZCD_NV_IDSET,0,1,&u16NewPaind);
// 1189     }  
// 1190 }
// 1191 
// 1192 
// 1193 //这里用于统计功能
// 1194 void CompforTestID(uint8 *dat)
// 1195 {
// 1196   uint8 predict[8]={103,97,111,99,101,115,104,105};//gaoceshi
// 1197   uint8 *ppredict=&predict[0];
// 1198   uint8 i; 
// 1199   //uint8 7;
// 1200   if(rxlen!=8)//比较从上位机来的数据长度！！
// 1201   return;
// 1202 
// 1203   for ( i = 0; i <9; i++ )//这几个空过去是因为有设备ID。
// 1204   {
// 1205    *dat++ ;
// 1206   }
// 1207   
// 1208   for ( i = 0; i <8; i++ )
// 1209   {
// 1210    if(*dat++ == *ppredict++);
// 1211    else
// 1212        return;
// 1213   }  
// 1214   SampleApp_Broadcast_ForTest();
// 1215   osal_mem_free( rbuf );  //必须释放内存,不然造成溢出!
// 1216   
// 1217   rbuf_Free_Flag=1;
// 1218 }
// 1219 
// 1220 
// 1221 //注意这个函数被调用后释放了内存，所以这个函数本身内部不释放
// 1222 
// 1223 //协调器向节点发送广播信息
// 1224 void SampleApp_Broadcast_ForTest(void)
// 1225 {
// 1226     uint8 Broadcast[1];
// 1227     SampleApp_SPI_SendData_DstAddr.addrMode = (afAddrMode_t)AddrBroadcast;
// 1228     SampleApp_SPI_SendData_DstAddr.endPoint = SAMPLEAPP_ENDPOINT;
// 1229     SampleApp_SPI_SendData_DstAddr.addr.shortAddr = 0xFFFF; 
// 1230     
// 1231     if ( AF_DataRequest   ( &SampleApp_SPI_SendData_DstAddr,
// 1232                           (endPointDesc_t *)&SampleApp_epDesc,
// 1233                           SAMPLEAPP_BROADCAST_CLUSTERID,
// 1234                           1, 
// 1235                           &Broadcast[0],
// 1236                           &SampleApp_TransID, 
// 1237                           0, 
// 1238                           AF_DEFAULT_RADIUS ) == afStatus_SUCCESS )
// 1239   {
// 1240     //osal_mem_free( rbuf );  //必须释放内存,不然造成溢出!
// 1241   }
// 1242   else
// 1243   {
// 1244    // osal_mem_free( rbuf ); //必须释放内存,不然造成溢出!    
// 1245   }
// 1246 }
// 1247 
// 1248 
// 1249 void SampleApp_SendTestMessage(void)
// 1250 {
// 1251   uint8 i;
// 1252   uint8 pIDTestbuf[4];
// 1253   SampleApp_SPI_SendData_DstAddr.addrMode = (afAddrMode_t)Addr16Bit;
// 1254   SampleApp_SPI_SendData_DstAddr.endPoint = SAMPLEAPP_ENDPOINT;
// 1255   SampleApp_SPI_SendData_DstAddr.addr.shortAddr = 0x0000;  
// 1256   for(i=0;i<4;i++)
// 1257   {
// 1258   pIDTestbuf[i]=pIDbuf[i];
// 1259   }
// 1260   if ( AF_DataRequest   ( &SampleApp_SPI_SendData_DstAddr,
// 1261                          (endPointDesc_t *)&SampleApp_epDesc,
// 1262                           SAMPLEAPP_TEST_CLUSTERID,
// 1263                           4, 
// 1264                           &pIDTestbuf[0],
// 1265                           &SampleApp_TransID, 
// 1266                           0, 
// 1267                           AF_DEFAULT_RADIUS ) == afStatus_SUCCESS )
// 1268   {
// 1269    // osal_mem_free( rbuf );  //必须释放内存,不然造成溢出!
// 1270   }
// 1271   else
// 1272   {
// 1273    // osal_mem_free( rbuf ); //必须释放内存,不然造成溢出!    
// 1274   }
// 1275 }
// 1276 
// 1277 
// 1278 //默认情况：1不启用ID功能  2启用TEST功能
// 1279 void Init_IDandTest(void)
// 1280 {
// 1281   uint8 u16NewPaind=1;
// 1282   uint8 u16InitID=0;
// 1283       if ( osal_nv_item_init( ZCD_NV_IDSET,1,&u16NewPaind ) == ZSUCCESS )  
// 1284     {
// 1285            osal_nv_write(ZCD_NV_IDSET,0,1,&u16InitID);//设置默认不带ID
// 1286            osal_nv_write(ZCD_NV_TEST,0,1,&u16NewPaind);//设备默认启用TEST
// 1287     }  
// 1288 }
// 1289 
// 1290 //电压检测对比
// 1291 void CompForVdd(uint8 *dat)
// 1292 {
// 1293   uint8 predict[8]={103,97,111};//gao
// 1294   uint8 *ppredict=&predict[0];
// 1295   uint8 i; 
// 1296   //uint8 7;
// 1297   if(rxlen!=3)//比较从上位机来的数据长度！！
// 1298   return;
// 1299 
// 1300   for ( i = 0; i <9; i++ )//这几个空过去是因为有设备ID。
// 1301   {
// 1302    *dat++ ;
// 1303   }
// 1304   
// 1305   for ( i = 0; i <3; i++ )
// 1306   {
// 1307    if(*dat++ == *ppredict++);
// 1308    else
// 1309        return;
// 1310   }  
// 1311   SampleApp_Broadcast_Vdd();
// 1312   osal_mem_free( rbuf );  //必须释放内存,不然造成溢出!
// 1313   rbuf_Free_Flag=1;
// 1314 }
// 1315 
// 1316 //电压检测---DA
// 1317 uint8 myApp_ReadBattery( void )
// 1318 {
// 1319   uint16 value;
// 1320   /* Clear ADC interrupt flag */
// 1321   ADCIF = 0;
// 1322   ADCCON3 = (HAL_ADC_REF_125V | HAL_ADC_DEC_128 | HAL_ADC_CHN_VDD3);
// 1323   /* Wait for the conversion to finish */
// 1324   while ( !ADCIF );
// 1325   /* Get the result */
// 1326   value = ADCL;
// 1327   value |= ((uint16) ADCH) << 8;
// 1328   /*
// 1329    * value now contains measurement of Vdd/3
// 1330    * 0 indicates 0V and 32767 indicates 1.25V
// 1331    * voltage = (value*3*1.25)/32767 volts
// 1332    * we will multiply by this by 10 to allow units of 0.1 volts
// 1333    */
// 1334   value = value >> 6;   // divide first by 2^6
// 1335   value = (uint16)(value * 37.5);
// 1336   value = value >> 9;   // ...and later by 2^9...to prevent overflow during multiplication
// 1337   return value;
// 1338 }
// 1339 
// 1340 
// 1341 //显示本地电压值
// 1342 void Read_Battery(void)
// 1343 {
// 1344   uint8 Battery_buf[5];
// 1345   uint8 Battery[1];
// 1346   uint8 str_1[ ]="Battery:";
// 1347   Battery[0]=myApp_ReadBattery();
// 1348   Battery_buf[0]=(Battery[0] / 10 ) + '0';   // convent msb to ascii
// 1349   Battery_buf[1]='.';                                                 // decimal point ( battery reading is in units of 0.1 V
// 1350   Battery_buf[2]=(Battery[0] % 10 ) + '0'; // convert lsb to ascii
// 1351   Battery_buf[3]=' ';
// 1352   Battery_buf[4]='V';
// 1353   HalUARTWrite(SERIAL_APP_PORT,&str_1[0],8);
// 1354   HalUARTWrite(SERIAL_APP_PORT,&Battery_buf[0],5);
// 1355 }
// 1356 
// 1357 //将电压值发送给协调器
// 1358 void SampleApp_Send_VDD_Message(void)
// 1359 {
// 1360   uint8 i;
// 1361   uint8 BatteryBuf[24];
// 1362   uint8 Battery[1];
// 1363   
// 1364   Battery[0]=myApp_ReadBattery();//读取电压值
// 1365   
// 1366   //将信息发送给协调器
// 1367   SampleApp_SPI_SendData_DstAddr.addrMode = (afAddrMode_t)Addr16Bit;
// 1368   SampleApp_SPI_SendData_DstAddr.endPoint = SAMPLEAPP_ENDPOINT;
// 1369   SampleApp_SPI_SendData_DstAddr.addr.shortAddr = 0x0000;  
// 1370   
// 1371   //协调器显示电压格式
// 1372   // ID：XXXX Battery:XXX 
// 1373   BatteryBuf[0]=23;             //数据长度
// 1374   BatteryBuf[1]=73;             //字符：I
// 1375   BatteryBuf[2]=68;             //字符：D
// 1376   BatteryBuf[3]=58;             //字符：
// 1377   
// 1378   for(i=0;i<4;i++)//复制设备ID
// 1379   {
// 1380     BatteryBuf[i+4]=pIDbuf[i];
// 1381   }  
// 1382   
// 1383   BatteryBuf[8]=' ';           //换行符
// 1384   
// 1385   BatteryBuf[9]='B';            //Battery: 
// 1386   BatteryBuf[10]='a';
// 1387   BatteryBuf[11]='t';
// 1388   BatteryBuf[12]='t';
// 1389   BatteryBuf[13]='e';
// 1390   BatteryBuf[14]='r';
// 1391   BatteryBuf[15]='y';
// 1392   BatteryBuf[16]=':';
// 1393   BatteryBuf[17]=' ';
// 1394   
// 1395   BatteryBuf[18]=(Battery[0] / 10 ) + '0';   // convent msb to ascii
// 1396   BatteryBuf[19]='.';                                                 // decimal point ( battery reading is in units of 0.1 V
// 1397   BatteryBuf[20]=(Battery[0] % 10 ) + '0'; // convert lsb to ascii
// 1398   BatteryBuf[21]=' ';
// 1399   BatteryBuf[22]='V';
// 1400   BatteryBuf[23]='\n';                     //换行符
// 1401   
// 1402   if ( AF_DataRequest   ( &SampleApp_SPI_SendData_DstAddr,
// 1403                          (endPointDesc_t *)&SampleApp_epDesc,
// 1404                           SAMPLEAPP_VDD_CLUSTERID,
// 1405                           24, 
// 1406                           &BatteryBuf[0],
// 1407                           &SampleApp_TransID, 
// 1408                           0, 
// 1409                           AF_DEFAULT_RADIUS ) == afStatus_SUCCESS )
// 1410   {
// 1411   }
// 1412   else
// 1413   {
// 1414   }
// 1415 }
// 1416 
// 1417 
// 1418 //协调器发向各个节点，要求回馈电压值
// 1419 void SampleApp_Broadcast_Vdd(void)
// 1420 {
// 1421     uint8 Broadcast[1];
// 1422     SampleApp_SPI_SendData_DstAddr.addrMode = (afAddrMode_t)AddrBroadcast;
// 1423     SampleApp_SPI_SendData_DstAddr.endPoint = SAMPLEAPP_ENDPOINT;
// 1424     SampleApp_SPI_SendData_DstAddr.addr.shortAddr = 0xFFFF; 
// 1425     
// 1426     if ( AF_DataRequest   ( &SampleApp_SPI_SendData_DstAddr,
// 1427                           (endPointDesc_t *)&SampleApp_epDesc,
// 1428                           SAMPLEAPP_BROADCAST_VDD_CLUSTERID,
// 1429                           1, 
// 1430                           &Broadcast[0],
// 1431                           &SampleApp_TransID, 
// 1432                           0, 
// 1433                           AF_DEFAULT_RADIUS ) == afStatus_SUCCESS )
// 1434   {
// 1435     
// 1436   }
// 1437   else
// 1438   {
// 1439     
// 1440   }
// 1441 }
// 1442 
// 1443 //匹配字符，用于测试节点，获取其他设备ID
// 1444 void CompforTESTID(uint8 *dat)
// 1445 {
// 1446   uint8 predict[9]={103,97,111,116,101,115,116,105,100};//gaotestid
// 1447   uint8 *ppredict=&predict[0];
// 1448   uint8 i; 
// 1449   //uint8 7;
// 1450   if(rxlen!=9)//比较从上位机来的数据长度！！
// 1451   return;
// 1452   
// 1453  // uint16 newid=0,temp=0;
// 1454   
// 1455   for ( i = 0; i <9; i++ )//这几个空过去是因为有设备ID。
// 1456   {
// 1457    *dat++ ;
// 1458   }
// 1459   
// 1460   for ( i = 0; i <9; i++ )
// 1461   {
// 1462    if(*dat++ == *ppredict++);
// 1463    else
// 1464        return;
// 1465   }  
// 1466   
// 1467   SampleApp_Broadcast_TEST_ID();
// 1468   osal_mem_free( rbuf );  //必须释放内存,不然造成溢出!
// 1469   rbuf_Free_Flag=1;
// 1470 }
// 1471 
// 1472 //测试节点发向各个节点，要求回馈ID值

        RSEG BANKED_CODE:CODE:NOROOT(0)
?Subroutine50:
        CFI Block cfiBlock64 Using cfiCommon0
        CFI NoFunction
        CFI CFA_SP SP+0
        CFI CFA_XSP16 add(XSP16, 19)
        CFI VB load(1, XDATA, add(CFA_XSP16, literal(-9)))
        CFI DPL0 load(1, XDATA, add(CFA_XSP16, literal(-2)))
        CFI DPH0 load(1, XDATA, add(CFA_XSP16, literal(-1)))
        CFI R6 load(1, XDATA, add(CFA_XSP16, literal(-10)))
        CFI R7 load(1, XDATA, add(CFA_XSP16, literal(-6)))
        CFI V0 load(1, XDATA, add(CFA_XSP16, literal(-8)))
        CFI V1 load(1, XDATA, add(CFA_XSP16, literal(-7)))
        CFI ?BRET_EXT load(1, XDATA, add(CFA_XSP16, literal(-3)))
        CFI ?RET_HIGH load(1, XDATA, add(CFA_XSP16, literal(-4)))
        CFI ?RET_LOW load(1, XDATA, add(CFA_XSP16, literal(-5)))
        MOV     R0,#?V0 + 0
        LCALL   ?PUSH_XSTACK_I_TWO
        CFI CFA_XSP16 add(XSP16, 21)
        LCALL   ?Subroutine30 & 0xFFFF
??CrossCallReturnLabel_127:
        LCALL   ?DEALLOC_XSTACK8
        CFI EndBlock cfiBlock64
        REQUIRE ??Subroutine55_0
        ; // Fall through to label ??Subroutine55_0

        RSEG BANKED_CODE:CODE:NOROOT(0)
??Subroutine55_0:
        CFI Block cfiBlock65 Using cfiCommon0
        CFI NoFunction
        CFI CFA_SP SP+0
        CFI CFA_XSP16 add(XSP16, 12)
        CFI VB load(1, XDATA, add(CFA_XSP16, literal(-9)))
        CFI DPL0 load(1, XDATA, add(CFA_XSP16, literal(-2)))
        CFI DPH0 load(1, XDATA, add(CFA_XSP16, literal(-1)))
        CFI R6 load(1, XDATA, add(CFA_XSP16, literal(-10)))
        CFI R7 load(1, XDATA, add(CFA_XSP16, literal(-6)))
        CFI V0 load(1, XDATA, add(CFA_XSP16, literal(-8)))
        CFI V1 load(1, XDATA, add(CFA_XSP16, literal(-7)))
        CFI ?BRET_EXT load(1, XDATA, add(CFA_XSP16, literal(-3)))
        CFI ?RET_HIGH load(1, XDATA, add(CFA_XSP16, literal(-4)))
        CFI ?RET_LOW load(1, XDATA, add(CFA_XSP16, literal(-5)))
        MOV     A,#0x2
        LJMP    ??Subroutine60_0 & 0xFFFF
        CFI EndBlock cfiBlock65

        RSEG BANKED_CODE:CODE:NOROOT(0)
?Subroutine3:
        CFI Block cfiCond66 Using cfiCommon0
        CFI NoFunction
        CFI Conditional ??CrossCallReturnLabel_93
        CFI R6 load(1, XDATA, add(CFA_XSP16, literal(-10)))
        CFI VB load(1, XDATA, add(CFA_XSP16, literal(-9)))
        CFI V0 load(1, XDATA, add(CFA_XSP16, literal(-8)))
        CFI V1 load(1, XDATA, add(CFA_XSP16, literal(-7)))
        CFI R7 load(1, XDATA, add(CFA_XSP16, literal(-6)))
        CFI ?RET_LOW load(1, XDATA, add(CFA_XSP16, literal(-5)))
        CFI ?RET_HIGH load(1, XDATA, add(CFA_XSP16, literal(-4)))
        CFI ?BRET_EXT load(1, XDATA, add(CFA_XSP16, literal(-3)))
        CFI DPL0 load(1, XDATA, add(CFA_XSP16, literal(-2)))
        CFI DPH0 load(1, XDATA, add(CFA_XSP16, literal(-1)))
        CFI CFA_SP SP+0
        CFI CFA_XSP16 add(XSP16, 12)
        CFI Block cfiCond67 Using cfiCommon0
        CFI (cfiCond67) NoFunction
        CFI (cfiCond67) Conditional ??CrossCallReturnLabel_94
        CFI (cfiCond67) R6 load(1, XDATA, add(CFA_XSP16, literal(-10)))
        CFI (cfiCond67) VB load(1, XDATA, add(CFA_XSP16, literal(-9)))
        CFI (cfiCond67) V0 load(1, XDATA, add(CFA_XSP16, literal(-8)))
        CFI (cfiCond67) V1 load(1, XDATA, add(CFA_XSP16, literal(-7)))
        CFI (cfiCond67) R7 load(1, XDATA, add(CFA_XSP16, literal(-6)))
        CFI (cfiCond67) ?RET_LOW load(1, XDATA, add(CFA_XSP16, literal(-5)))
        CFI (cfiCond67) ?RET_HIGH load(1, XDATA, add(CFA_XSP16, literal(-4)))
        CFI (cfiCond67) ?BRET_EXT load(1, XDATA, add(CFA_XSP16, literal(-3)))
        CFI (cfiCond67) DPL0 load(1, XDATA, add(CFA_XSP16, literal(-2)))
        CFI (cfiCond67) DPH0 load(1, XDATA, add(CFA_XSP16, literal(-1)))
        CFI (cfiCond67) CFA_SP SP+0
        CFI (cfiCond67) CFA_XSP16 add(XSP16, 12)
        CFI Block cfiPicker68 Using cfiCommon1
        CFI (cfiPicker68) NoFunction
        CFI (cfiPicker68) Picker
        MOV     DPL,?XSP + 0
        MOV     DPH,?XSP + 1
        MOV     A,R2
        MOVX    @DPTR,A
        INC     DPTR
        MOV     A,R3
        CFI EndBlock cfiCond66
        CFI EndBlock cfiCond67
        CFI EndBlock cfiPicker68
        REQUIRE ?Subroutine46
        REQUIRE ??Subroutine56_0
        ; // Fall through to label ??Subroutine56_0

        RSEG BANKED_CODE:CODE:NOROOT(0)
??Subroutine56_0:
        CFI Block cfiCond69 Using cfiCommon0
        CFI NoFunction
        CFI Conditional ??CrossCallReturnLabel_95
        CFI R6 load(1, XDATA, add(CFA_XSP16, literal(-10)))
        CFI VB load(1, XDATA, add(CFA_XSP16, literal(-9)))
        CFI V0 load(1, XDATA, add(CFA_XSP16, literal(-8)))
        CFI V1 load(1, XDATA, add(CFA_XSP16, literal(-7)))
        CFI R7 load(1, XDATA, add(CFA_XSP16, literal(-6)))
        CFI ?RET_LOW load(1, XDATA, add(CFA_XSP16, literal(-5)))
        CFI ?RET_HIGH load(1, XDATA, add(CFA_XSP16, literal(-4)))
        CFI ?BRET_EXT load(1, XDATA, add(CFA_XSP16, literal(-3)))
        CFI DPL0 load(1, XDATA, add(CFA_XSP16, literal(-2)))
        CFI DPH0 load(1, XDATA, add(CFA_XSP16, literal(-1)))
        CFI CFA_SP SP+0
        CFI CFA_XSP16 add(XSP16, 12)
        CFI Block cfiCond70 Using cfiCommon0
        CFI (cfiCond70) NoFunction
        CFI (cfiCond70) Conditional ??CrossCallReturnLabel_93
        CFI (cfiCond70) R6 load(1, XDATA, add(CFA_XSP16, literal(-10)))
        CFI (cfiCond70) VB load(1, XDATA, add(CFA_XSP16, literal(-9)))
        CFI (cfiCond70) V0 load(1, XDATA, add(CFA_XSP16, literal(-8)))
        CFI (cfiCond70) V1 load(1, XDATA, add(CFA_XSP16, literal(-7)))
        CFI (cfiCond70) R7 load(1, XDATA, add(CFA_XSP16, literal(-6)))
        CFI (cfiCond70) ?RET_LOW load(1, XDATA, add(CFA_XSP16, literal(-5)))
        CFI (cfiCond70) ?RET_HIGH load(1, XDATA, add(CFA_XSP16, literal(-4)))
        CFI (cfiCond70) ?BRET_EXT load(1, XDATA, add(CFA_XSP16, literal(-3)))
        CFI (cfiCond70) DPL0 load(1, XDATA, add(CFA_XSP16, literal(-2)))
        CFI (cfiCond70) DPH0 load(1, XDATA, add(CFA_XSP16, literal(-1)))
        CFI (cfiCond70) CFA_SP SP+0
        CFI (cfiCond70) CFA_XSP16 add(XSP16, 12)
        CFI Block cfiCond71 Using cfiCommon0
        CFI (cfiCond71) NoFunction
        CFI (cfiCond71) Conditional ??CrossCallReturnLabel_94
        CFI (cfiCond71) R6 load(1, XDATA, add(CFA_XSP16, literal(-10)))
        CFI (cfiCond71) VB load(1, XDATA, add(CFA_XSP16, literal(-9)))
        CFI (cfiCond71) V0 load(1, XDATA, add(CFA_XSP16, literal(-8)))
        CFI (cfiCond71) V1 load(1, XDATA, add(CFA_XSP16, literal(-7)))
        CFI (cfiCond71) R7 load(1, XDATA, add(CFA_XSP16, literal(-6)))
        CFI (cfiCond71) ?RET_LOW load(1, XDATA, add(CFA_XSP16, literal(-5)))
        CFI (cfiCond71) ?RET_HIGH load(1, XDATA, add(CFA_XSP16, literal(-4)))
        CFI (cfiCond71) ?BRET_EXT load(1, XDATA, add(CFA_XSP16, literal(-3)))
        CFI (cfiCond71) DPL0 load(1, XDATA, add(CFA_XSP16, literal(-2)))
        CFI (cfiCond71) DPH0 load(1, XDATA, add(CFA_XSP16, literal(-1)))
        CFI (cfiCond71) CFA_SP SP+0
        CFI (cfiCond71) CFA_XSP16 add(XSP16, 12)
        CFI Block cfiPicker72 Using cfiCommon1
        CFI (cfiPicker72) NoFunction
        CFI (cfiPicker72) Picker
        MOVX    @DPTR,A
        ; Setup parameters for call to function osal_nv_item_init
        ; Setup parameters for call to function osal_nv_item_init
        ; Setup parameters for call to function osal_nv_item_init
        MOV     DPL,?XSP + 0
        MOV     DPH,?XSP + 1
        CFI EndBlock cfiCond69
        CFI EndBlock cfiCond70
        CFI EndBlock cfiCond71
        CFI EndBlock cfiPicker72
        REQUIRE ?Subroutine46
        ; // Fall through to label ?Subroutine46

        RSEG BANKED_CODE:CODE:NOROOT(0)
?Subroutine46:
        CFI Block cfiCond73 Using cfiCommon0
        CFI NoFunction
        CFI Conditional ??CrossCallReturnLabel_93
        CFI R6 load(1, XDATA, add(CFA_XSP16, literal(-10)))
        CFI VB load(1, XDATA, add(CFA_XSP16, literal(-9)))
        CFI V0 load(1, XDATA, add(CFA_XSP16, literal(-8)))
        CFI V1 load(1, XDATA, add(CFA_XSP16, literal(-7)))
        CFI R7 load(1, XDATA, add(CFA_XSP16, literal(-6)))
        CFI ?RET_LOW load(1, XDATA, add(CFA_XSP16, literal(-5)))
        CFI ?RET_HIGH load(1, XDATA, add(CFA_XSP16, literal(-4)))
        CFI ?BRET_EXT load(1, XDATA, add(CFA_XSP16, literal(-3)))
        CFI DPL0 load(1, XDATA, add(CFA_XSP16, literal(-2)))
        CFI DPH0 load(1, XDATA, add(CFA_XSP16, literal(-1)))
        CFI CFA_SP SP+0
        CFI CFA_XSP16 add(XSP16, 12)
        CFI Block cfiCond74 Using cfiCommon0
        CFI (cfiCond74) NoFunction
        CFI (cfiCond74) Conditional ??CrossCallReturnLabel_94
        CFI (cfiCond74) R6 load(1, XDATA, add(CFA_XSP16, literal(-10)))
        CFI (cfiCond74) VB load(1, XDATA, add(CFA_XSP16, literal(-9)))
        CFI (cfiCond74) V0 load(1, XDATA, add(CFA_XSP16, literal(-8)))
        CFI (cfiCond74) V1 load(1, XDATA, add(CFA_XSP16, literal(-7)))
        CFI (cfiCond74) R7 load(1, XDATA, add(CFA_XSP16, literal(-6)))
        CFI (cfiCond74) ?RET_LOW load(1, XDATA, add(CFA_XSP16, literal(-5)))
        CFI (cfiCond74) ?RET_HIGH load(1, XDATA, add(CFA_XSP16, literal(-4)))
        CFI (cfiCond74) ?BRET_EXT load(1, XDATA, add(CFA_XSP16, literal(-3)))
        CFI (cfiCond74) DPL0 load(1, XDATA, add(CFA_XSP16, literal(-2)))
        CFI (cfiCond74) DPH0 load(1, XDATA, add(CFA_XSP16, literal(-1)))
        CFI (cfiCond74) CFA_SP SP+0
        CFI (cfiCond74) CFA_XSP16 add(XSP16, 12)
        CFI Block cfiCond75 Using cfiCommon0
        CFI (cfiCond75) NoFunction
        CFI (cfiCond75) Conditional ??CrossCallReturnLabel_95
        CFI (cfiCond75) R6 load(1, XDATA, add(CFA_XSP16, literal(-10)))
        CFI (cfiCond75) VB load(1, XDATA, add(CFA_XSP16, literal(-9)))
        CFI (cfiCond75) V0 load(1, XDATA, add(CFA_XSP16, literal(-8)))
        CFI (cfiCond75) V1 load(1, XDATA, add(CFA_XSP16, literal(-7)))
        CFI (cfiCond75) R7 load(1, XDATA, add(CFA_XSP16, literal(-6)))
        CFI (cfiCond75) ?RET_LOW load(1, XDATA, add(CFA_XSP16, literal(-5)))
        CFI (cfiCond75) ?RET_HIGH load(1, XDATA, add(CFA_XSP16, literal(-4)))
        CFI (cfiCond75) ?BRET_EXT load(1, XDATA, add(CFA_XSP16, literal(-3)))
        CFI (cfiCond75) DPL0 load(1, XDATA, add(CFA_XSP16, literal(-2)))
        CFI (cfiCond75) DPH0 load(1, XDATA, add(CFA_XSP16, literal(-1)))
        CFI (cfiCond75) CFA_SP SP+0
        CFI (cfiCond75) CFA_XSP16 add(XSP16, 12)
        CFI Block cfiCond76 Using cfiCommon0
        CFI (cfiCond76) NoFunction
        CFI (cfiCond76) Conditional ??CrossCallReturnLabel_91
        CFI (cfiCond76) R6 load(1, XDATA, add(CFA_XSP16, literal(-10)))
        CFI (cfiCond76) VB load(1, XDATA, add(CFA_XSP16, literal(-9)))
        CFI (cfiCond76) V0 load(1, XDATA, add(CFA_XSP16, literal(-8)))
        CFI (cfiCond76) V1 load(1, XDATA, add(CFA_XSP16, literal(-7)))
        CFI (cfiCond76) R7 load(1, XDATA, add(CFA_XSP16, literal(-6)))
        CFI (cfiCond76) ?RET_LOW load(1, XDATA, add(CFA_XSP16, literal(-5)))
        CFI (cfiCond76) ?RET_HIGH load(1, XDATA, add(CFA_XSP16, literal(-4)))
        CFI (cfiCond76) ?BRET_EXT load(1, XDATA, add(CFA_XSP16, literal(-3)))
        CFI (cfiCond76) DPL0 load(1, XDATA, add(CFA_XSP16, literal(-2)))
        CFI (cfiCond76) DPH0 load(1, XDATA, add(CFA_XSP16, literal(-1)))
        CFI (cfiCond76) CFA_SP SP+0
        CFI (cfiCond76) CFA_XSP16 add(XSP16, 11)
        CFI Block cfiCond77 Using cfiCommon0
        CFI (cfiCond77) NoFunction
        CFI (cfiCond77) Conditional ??CrossCallReturnLabel_92
        CFI (cfiCond77) R6 load(1, XDATA, add(CFA_XSP16, literal(-10)))
        CFI (cfiCond77) VB load(1, XDATA, add(CFA_XSP16, literal(-9)))
        CFI (cfiCond77) V0 load(1, XDATA, add(CFA_XSP16, literal(-8)))
        CFI (cfiCond77) V1 load(1, XDATA, add(CFA_XSP16, literal(-7)))
        CFI (cfiCond77) R7 load(1, XDATA, add(CFA_XSP16, literal(-6)))
        CFI (cfiCond77) ?RET_LOW load(1, XDATA, add(CFA_XSP16, literal(-5)))
        CFI (cfiCond77) ?RET_HIGH load(1, XDATA, add(CFA_XSP16, literal(-4)))
        CFI (cfiCond77) ?BRET_EXT load(1, XDATA, add(CFA_XSP16, literal(-3)))
        CFI (cfiCond77) DPL0 load(1, XDATA, add(CFA_XSP16, literal(-2)))
        CFI (cfiCond77) DPH0 load(1, XDATA, add(CFA_XSP16, literal(-1)))
        CFI (cfiCond77) CFA_SP SP+0
        CFI (cfiCond77) CFA_XSP16 add(XSP16, 11)
        CFI Block cfiPicker78 Using cfiCommon1
        CFI (cfiPicker78) NoFunction
        CFI (cfiPicker78) Picker
        MOV     ?V0 + 0,DPL
        MOV     ?V0 + 1,DPH
        MOV     R0,#?V0 + 0
        RET
        CFI EndBlock cfiCond73
        CFI EndBlock cfiCond74
        CFI EndBlock cfiCond75
        CFI EndBlock cfiCond76
        CFI EndBlock cfiCond77
        CFI EndBlock cfiPicker78

        RSEG BANKED_CODE:CODE:NOROOT(0)
ReadPanidbuf:
        CFI Block cfiBlock79 Using cfiCommon0
        CFI Function ReadPanidbuf
        FUNCALL ReadPanidbuf, osal_nv_read
        LOCFRAME ISTACK, 0, STACK
        LOCFRAME PSTACK, 0, STACK
        LOCFRAME XSTACK, 31, STACK
        LOCFRAME IOVERLAY, 0, STATIC
        LOCFRAME DOVERLAY, 0, STATIC
        ARGFRAME ISTACK, 0, STACK
        ARGFRAME PSTACK, 0, STACK
        ARGFRAME XSTACK, 31, STACK
        ARGFRAME IOVERLAY, 0, STATIC
        ARGFRAME DOVERLAY, 0, STATIC
        FUNCALL ReadPanidbuf, hextoword1
        LOCFRAME ISTACK, 0, STACK
        LOCFRAME PSTACK, 0, STACK
        LOCFRAME XSTACK, 27, STACK
        LOCFRAME IOVERLAY, 0, STATIC
        LOCFRAME DOVERLAY, 0, STATIC
        ARGFRAME ISTACK, 0, STACK
        ARGFRAME PSTACK, 0, STACK
        ARGFRAME XSTACK, 27, STACK
        ARGFRAME IOVERLAY, 0, STATIC
        ARGFRAME DOVERLAY, 0, STATIC
        FUNCALL ReadPanidbuf, hextoword2
        LOCFRAME ISTACK, 0, STACK
        LOCFRAME PSTACK, 0, STACK
        LOCFRAME XSTACK, 27, STACK
        LOCFRAME IOVERLAY, 0, STATIC
        LOCFRAME DOVERLAY, 0, STATIC
        ARGFRAME ISTACK, 0, STACK
        ARGFRAME PSTACK, 0, STACK
        ARGFRAME XSTACK, 27, STACK
        ARGFRAME IOVERLAY, 0, STATIC
        ARGFRAME DOVERLAY, 0, STATIC
        FUNCALL ReadPanidbuf, hextoword1
        LOCFRAME ISTACK, 0, STACK
        LOCFRAME PSTACK, 0, STACK
        LOCFRAME XSTACK, 27, STACK
        LOCFRAME IOVERLAY, 0, STATIC
        LOCFRAME DOVERLAY, 0, STATIC
        ARGFRAME ISTACK, 0, STACK
        ARGFRAME PSTACK, 0, STACK
        ARGFRAME XSTACK, 27, STACK
        ARGFRAME IOVERLAY, 0, STATIC
        ARGFRAME DOVERLAY, 0, STATIC
        FUNCALL ReadPanidbuf, hextoword2
        LOCFRAME ISTACK, 0, STACK
        LOCFRAME PSTACK, 0, STACK
        LOCFRAME XSTACK, 27, STACK
        LOCFRAME IOVERLAY, 0, STATIC
        LOCFRAME DOVERLAY, 0, STATIC
        ARGFRAME ISTACK, 0, STACK
        ARGFRAME PSTACK, 0, STACK
        ARGFRAME XSTACK, 27, STACK
        ARGFRAME IOVERLAY, 0, STATIC
        ARGFRAME DOVERLAY, 0, STATIC
        FUNCALL ReadPanidbuf, HalUARTWrite
        LOCFRAME ISTACK, 0, STACK
        LOCFRAME PSTACK, 0, STACK
        LOCFRAME XSTACK, 27, STACK
        LOCFRAME IOVERLAY, 0, STATIC
        LOCFRAME DOVERLAY, 0, STATIC
        ARGFRAME ISTACK, 0, STACK
        ARGFRAME PSTACK, 0, STACK
        ARGFRAME XSTACK, 27, STACK
        ARGFRAME IOVERLAY, 0, STATIC
        ARGFRAME DOVERLAY, 0, STATIC
        FUNCALL ReadPanidbuf, osal_mem_free
        LOCFRAME ISTACK, 0, STACK
        LOCFRAME PSTACK, 0, STACK
        LOCFRAME XSTACK, 27, STACK
        LOCFRAME IOVERLAY, 0, STATIC
        LOCFRAME DOVERLAY, 0, STATIC
        ARGFRAME ISTACK, 0, STACK
        ARGFRAME PSTACK, 0, STACK
        ARGFRAME XSTACK, 27, STACK
        ARGFRAME IOVERLAY, 0, STATIC
        ARGFRAME DOVERLAY, 0, STATIC
        MOV     A,#-0xa
        LCALL   ?BANKED_ENTER_XDATA
        CFI DPH0 load(1, XDATA, add(CFA_XSP16, literal(-1)))
        CFI DPL0 load(1, XDATA, add(CFA_XSP16, literal(-2)))
        CFI ?BRET_EXT load(1, XDATA, add(CFA_XSP16, literal(-3)))
        CFI ?RET_HIGH load(1, XDATA, add(CFA_XSP16, literal(-4)))
        CFI ?RET_LOW load(1, XDATA, add(CFA_XSP16, literal(-5)))
        CFI R7 load(1, XDATA, add(CFA_XSP16, literal(-6)))
        CFI V1 load(1, XDATA, add(CFA_XSP16, literal(-7)))
        CFI V0 load(1, XDATA, add(CFA_XSP16, literal(-8)))
        CFI VB load(1, XDATA, add(CFA_XSP16, literal(-9)))
        CFI R6 load(1, XDATA, add(CFA_XSP16, literal(-10)))
        CFI CFA_SP SP+0
        CFI CFA_XSP16 add(XSP16, 10)
        ; Saved register size: 10
        ; Auto size: 17
        MOV     A,#-0x11
        LCALL   ?ALLOC_XSTACK8
        CFI CFA_XSP16 add(XSP16, 27)
        MOV     A,#0x9
        LCALL   ?XSTACK_DISP0_8
        MOV     R4,DPL
        MOV     R5,DPH
        MOV     DPH,#((`?<Constant {103, 97, 111, 112, 97, 110, 105, 1` >> 8) & 0xff)
        MOV     DPL,#(`?<Constant {103, 97, 111, 112, 97, 110, 105, 1` & 0xff)
        MOV     A,#0x8
        LCALL   ?MOVE_LONG8_XDATA_XDATA
        MOV     A,#0x9
        LCALL   ?XSTACK_DISP0_8
        MOV     R0,DPL
        MOV     R1,DPH
        MOV     DPTR,#rxlen
        MOVX    A,@DPTR
        XRL     A,#0x8
        JZ      $+5
        LJMP    ??CrossCallReturnLabel_113 & 0xFFFF
        LCALL   ?Subroutine20 & 0xFFFF
??CrossCallReturnLabel_46:
        LCALL   ?Subroutine14 & 0xFFFF
??CrossCallReturnLabel_21:
        JZ      $+5
        LJMP    ??CrossCallReturnLabel_113 & 0xFFFF
        INC     ?V0 + 0
        MOV     A,?V0 + 0
        CLR     C
        SUBB    A,#0x8
        JC      ??CrossCallReturnLabel_46
        ; Setup parameters for call to function osal_nv_read
        MOV     DPL,?XSP + 0
        MOV     DPH,?XSP + 1
        MOV     ?V0 + 0,DPL
        MOV     ?V0 + 1,DPH
        MOV     R0,#?V0 + 0
        LCALL   ?PUSH_XSTACK_I_TWO
        CFI CFA_XSP16 add(XSP16, 29)
        MOV     ?V0 + 0,#0x2
        MOV     ?V0 + 1,#0x0
        MOV     R0,#?V0 + 0
        LCALL   ?PUSH_XSTACK_I_TWO
        CFI CFA_XSP16 add(XSP16, 31)
        MOV     R4,#0x0
        MOV     R5,#0x0
        MOV     R2,#-0x7d
        MOV     R3,#0x0
        LCALL   ??osal_nv_read?relay
        MOV     A,#0x4
        LCALL   ?DEALLOC_XSTACK8
        CFI CFA_XSP16 add(XSP16, 27)
        MOV     DPL,?XSP + 0
        MOV     DPH,?XSP + 1
        INC     DPTR
        MOVX    A,@DPTR
        MOV     R1,A
        MOV     R6,A
        MOV     DPL,?XSP + 0
        MOV     DPH,?XSP + 1
        MOVX    A,@DPTR
        MOV     R7,A
        MOV     A,#0x2
        LCALL   ?XSTACK_DISP0_8
        MOV     A,#0x30
        MOVX    @DPTR,A
        MOV     A,#0x3
        LCALL   ?XSTACK_DISP0_8
        MOV     A,#0x78
        MOVX    @DPTR,A
        ; Setup parameters for call to function hextoword1
        LCALL   ??hextoword1?relay
        MOV     A,#0x4
        LCALL   ?XSTACK_DISP0_8
        MOV     A,R1
        MOVX    @DPTR,A
        ; Setup parameters for call to function hextoword2
        MOV     A,R6
        MOV     R1,A
        LCALL   ??hextoword2?relay
        MOV     A,#0x5
        LCALL   ?XSTACK_DISP0_8
        MOV     A,R1
        MOVX    @DPTR,A
        ; Setup parameters for call to function hextoword1
        MOV     A,R7
        MOV     R1,A
        LCALL   ??hextoword1?relay
        MOV     A,#0x6
        LCALL   ?XSTACK_DISP0_8
        MOV     A,R1
        MOVX    @DPTR,A
        ; Setup parameters for call to function hextoword2
        MOV     A,R7
        MOV     R1,A
        LCALL   ??hextoword2?relay
        MOV     A,#0x7
        LCALL   ?XSTACK_DISP0_8
        MOV     A,R1
        MOVX    @DPTR,A
        MOV     A,#0x8
        LCALL   ?XSTACK_DISP0_8
        MOV     A,#0xa
        MOVX    @DPTR,A
        ; Setup parameters for call to function HalUARTWrite
        MOV     R4,#0x7
        MOV     R5,#0x0
        MOV     A,#0x2
        LCALL   ?XSTACK_DISP0_8
        MOV     R2,DPL
        MOV     R3,DPH
        LCALL   ?Subroutine13 & 0xFFFF
??CrossCallReturnLabel_113:
        MOV     A,#0x11
        LJMP    ??Subroutine60_0 & 0xFFFF
        CFI EndBlock cfiBlock79

        RSEG BANKED_CODE:CODE:NOROOT(0)
SampleApp_SPI_SendData:
        CFI Block cfiBlock80 Using cfiCommon0
        CFI Function SampleApp_SPI_SendData
        FUNCALL SampleApp_SPI_SendData, AF_DataRequest
        LOCFRAME ISTACK, 0, STACK
        LOCFRAME PSTACK, 0, STACK
        LOCFRAME XSTACK, 19, STACK
        LOCFRAME IOVERLAY, 0, STATIC
        LOCFRAME DOVERLAY, 0, STATIC
        ARGFRAME ISTACK, 0, STACK
        ARGFRAME PSTACK, 0, STACK
        ARGFRAME XSTACK, 19, STACK
        ARGFRAME IOVERLAY, 0, STATIC
        ARGFRAME DOVERLAY, 0, STATIC
        FUNCALL SampleApp_SPI_SendData, osal_mem_free
        LOCFRAME ISTACK, 0, STACK
        LOCFRAME PSTACK, 0, STACK
        LOCFRAME XSTACK, 10, STACK
        LOCFRAME IOVERLAY, 0, STATIC
        LOCFRAME DOVERLAY, 0, STATIC
        ARGFRAME ISTACK, 0, STACK
        ARGFRAME PSTACK, 0, STACK
        ARGFRAME XSTACK, 10, STACK
        ARGFRAME IOVERLAY, 0, STATIC
        ARGFRAME DOVERLAY, 0, STATIC
        MOV     A,#-0xa
        LCALL   ?BANKED_ENTER_XDATA
        CFI DPH0 load(1, XDATA, add(CFA_XSP16, literal(-1)))
        CFI DPL0 load(1, XDATA, add(CFA_XSP16, literal(-2)))
        CFI ?BRET_EXT load(1, XDATA, add(CFA_XSP16, literal(-3)))
        CFI ?RET_HIGH load(1, XDATA, add(CFA_XSP16, literal(-4)))
        CFI ?RET_LOW load(1, XDATA, add(CFA_XSP16, literal(-5)))
        CFI R7 load(1, XDATA, add(CFA_XSP16, literal(-6)))
        CFI V1 load(1, XDATA, add(CFA_XSP16, literal(-7)))
        CFI V0 load(1, XDATA, add(CFA_XSP16, literal(-8)))
        CFI VB load(1, XDATA, add(CFA_XSP16, literal(-9)))
        CFI R6 load(1, XDATA, add(CFA_XSP16, literal(-10)))
        CFI CFA_SP SP+0
        CFI CFA_XSP16 add(XSP16, 10)
        ; Saved register size: 10
        ; Auto size: 0
        MOV     DPTR,#devStartMode
        MOVX    A,@DPTR
        XRL     A,#0x2
        JNZ     ??SampleApp_SPI_SendData_0
        MOV     A,#0xf
        LCALL   ?Subroutine11 & 0xFFFF
??CrossCallReturnLabel_19:
        MOV     A,#-0x1
        SJMP    ??SampleApp_SPI_SendData_1
??SampleApp_SPI_SendData_0:
        MOV     A,#0x2
        LCALL   ?Subroutine11 & 0xFFFF
??CrossCallReturnLabel_20:
        CLR     A
??SampleApp_SPI_SendData_1:
        MOVX    @DPTR,A
        INC     DPTR
        LCALL   ?Subroutine47 & 0xFFFF
??CrossCallReturnLabel_144:
        LCALL   ?PUSH_XSTACK_I_ONE
        CFI CFA_XSP16 add(XSP16, 11)
        MOV     ?V0 + 0,#(SampleApp_TransID & 0xff)
        MOV     ?V0 + 1,#((SampleApp_TransID >> 8) & 0xff)
        MOV     R0,#?V0 + 0
        LCALL   ?PUSH_XSTACK_I_TWO
        CFI CFA_XSP16 add(XSP16, 13)
        MOV     ?V0 + 0,R2
        MOV     ?V0 + 1,R3
        MOV     R0,#?V0 + 0
        LCALL   ?PUSH_XSTACK_I_TWO
        CFI CFA_XSP16 add(XSP16, 15)
        MOV     ?V0 + 0,R1
        MOV     ?V0 + 1,#0x0
        MOV     R0,#?V0 + 0
        LCALL   ?PUSH_XSTACK_I_TWO
        CFI CFA_XSP16 add(XSP16, 17)
        MOV     ?V0 + 0,#0x2
        MOV     R0,#?V0 + 0
        LCALL   ?PUSH_XSTACK_I_TWO
        CFI CFA_XSP16 add(XSP16, 19)
        LCALL   ?Subroutine30 & 0xFFFF
??CrossCallReturnLabel_125:
        LCALL   ?DEALLOC_XSTACK8
        CFI CFA_XSP16 add(XSP16, 10)
        ; Setup parameters for call to function osal_mem_free
        LCALL   ?Subroutine17 & 0xFFFF
??CrossCallReturnLabel_32:
        LJMP    ??Subroutine61_0 & 0xFFFF
        CFI EndBlock cfiBlock80

        RSEG BANKED_CODE:CODE:NOROOT(0)
?Subroutine17:
        CFI Block cfiCond81 Using cfiCommon0
        CFI NoFunction
        CFI Conditional ??CrossCallReturnLabel_31
        CFI R6 load(1, XDATA, add(CFA_XSP16, literal(-10)))
        CFI VB load(1, XDATA, add(CFA_XSP16, literal(-9)))
        CFI V0 load(1, XDATA, add(CFA_XSP16, literal(-8)))
        CFI V1 load(1, XDATA, add(CFA_XSP16, literal(-7)))
        CFI R7 load(1, XDATA, add(CFA_XSP16, literal(-6)))
        CFI ?RET_LOW load(1, XDATA, add(CFA_XSP16, literal(-5)))
        CFI ?RET_HIGH load(1, XDATA, add(CFA_XSP16, literal(-4)))
        CFI ?BRET_EXT load(1, XDATA, add(CFA_XSP16, literal(-3)))
        CFI DPL0 load(1, XDATA, add(CFA_XSP16, literal(-2)))
        CFI DPH0 load(1, XDATA, add(CFA_XSP16, literal(-1)))
        CFI CFA_SP SP+0
        CFI CFA_XSP16 add(XSP16, 10)
        CFI Block cfiCond82 Using cfiCommon0
        CFI (cfiCond82) NoFunction
        CFI (cfiCond82) Conditional ??CrossCallReturnLabel_32
        CFI (cfiCond82) R6 load(1, XDATA, add(CFA_XSP16, literal(-10)))
        CFI (cfiCond82) VB load(1, XDATA, add(CFA_XSP16, literal(-9)))
        CFI (cfiCond82) V0 load(1, XDATA, add(CFA_XSP16, literal(-8)))
        CFI (cfiCond82) V1 load(1, XDATA, add(CFA_XSP16, literal(-7)))
        CFI (cfiCond82) R7 load(1, XDATA, add(CFA_XSP16, literal(-6)))
        CFI (cfiCond82) ?RET_LOW load(1, XDATA, add(CFA_XSP16, literal(-5)))
        CFI (cfiCond82) ?RET_HIGH load(1, XDATA, add(CFA_XSP16, literal(-4)))
        CFI (cfiCond82) ?BRET_EXT load(1, XDATA, add(CFA_XSP16, literal(-3)))
        CFI (cfiCond82) DPL0 load(1, XDATA, add(CFA_XSP16, literal(-2)))
        CFI (cfiCond82) DPH0 load(1, XDATA, add(CFA_XSP16, literal(-1)))
        CFI (cfiCond82) CFA_SP SP+0
        CFI (cfiCond82) CFA_XSP16 add(XSP16, 10)
        CFI Block cfiPicker83 Using cfiCommon1
        CFI (cfiPicker83) NoFunction
        CFI (cfiPicker83) Picker
        LCALL   ?Subroutine39 & 0xFFFF
??CrossCallReturnLabel_123:
        RET
        CFI EndBlock cfiCond81
        CFI EndBlock cfiCond82
        CFI EndBlock cfiPicker83

        RSEG BANKED_CODE:CODE:NOROOT(0)
?Subroutine39:
        CFI Block cfiCond84 Using cfiCommon0
        CFI NoFunction
        CFI Conditional ??CrossCallReturnLabel_123, ??CrossCallReturnLabel_31
        CFI R6 load(1, XDATA, add(CFA_XSP16, literal(-10)))
        CFI VB load(1, XDATA, add(CFA_XSP16, literal(-9)))
        CFI V0 load(1, XDATA, add(CFA_XSP16, literal(-8)))
        CFI V1 load(1, XDATA, add(CFA_XSP16, literal(-7)))
        CFI R7 load(1, XDATA, add(CFA_XSP16, literal(-6)))
        CFI ?RET_LOW load(1, XDATA, add(CFA_XSP16, literal(-5)))
        CFI ?RET_HIGH load(1, XDATA, add(CFA_XSP16, literal(-4)))
        CFI ?BRET_EXT load(1, XDATA, add(CFA_XSP16, literal(-3)))
        CFI DPL0 load(1, XDATA, add(CFA_XSP16, literal(-2)))
        CFI DPH0 load(1, XDATA, add(CFA_XSP16, literal(-1)))
        CFI CFA_SP SP+0
        CFI CFA_XSP16 add(XSP16, 10)
        CFI Block cfiCond85 Using cfiCommon0
        CFI (cfiCond85) NoFunction
        CFI (cfiCond85) Conditional ??CrossCallReturnLabel_123, ??CrossCallReturnLabel_32
        CFI (cfiCond85) R6 load(1, XDATA, add(CFA_XSP16, literal(-10)))
        CFI (cfiCond85) VB load(1, XDATA, add(CFA_XSP16, literal(-9)))
        CFI (cfiCond85) V0 load(1, XDATA, add(CFA_XSP16, literal(-8)))
        CFI (cfiCond85) V1 load(1, XDATA, add(CFA_XSP16, literal(-7)))
        CFI (cfiCond85) R7 load(1, XDATA, add(CFA_XSP16, literal(-6)))
        CFI (cfiCond85) ?RET_LOW load(1, XDATA, add(CFA_XSP16, literal(-5)))
        CFI (cfiCond85) ?RET_HIGH load(1, XDATA, add(CFA_XSP16, literal(-4)))
        CFI (cfiCond85) ?BRET_EXT load(1, XDATA, add(CFA_XSP16, literal(-3)))
        CFI (cfiCond85) DPL0 load(1, XDATA, add(CFA_XSP16, literal(-2)))
        CFI (cfiCond85) DPH0 load(1, XDATA, add(CFA_XSP16, literal(-1)))
        CFI (cfiCond85) CFA_SP SP+0
        CFI (cfiCond85) CFA_XSP16 add(XSP16, 10)
        CFI Block cfiCond86 Using cfiCommon0
        CFI (cfiCond86) NoFunction
        CFI (cfiCond86) Conditional ??CrossCallReturnLabel_124, ??CrossCallReturnLabel_113
        CFI (cfiCond86) R6 load(1, XDATA, add(CFA_XSP16, literal(-10)))
        CFI (cfiCond86) VB load(1, XDATA, add(CFA_XSP16, literal(-9)))
        CFI (cfiCond86) V0 load(1, XDATA, add(CFA_XSP16, literal(-8)))
        CFI (cfiCond86) V1 load(1, XDATA, add(CFA_XSP16, literal(-7)))
        CFI (cfiCond86) R7 load(1, XDATA, add(CFA_XSP16, literal(-6)))
        CFI (cfiCond86) ?RET_LOW load(1, XDATA, add(CFA_XSP16, literal(-5)))
        CFI (cfiCond86) ?RET_HIGH load(1, XDATA, add(CFA_XSP16, literal(-4)))
        CFI (cfiCond86) ?BRET_EXT load(1, XDATA, add(CFA_XSP16, literal(-3)))
        CFI (cfiCond86) DPL0 load(1, XDATA, add(CFA_XSP16, literal(-2)))
        CFI (cfiCond86) DPH0 load(1, XDATA, add(CFA_XSP16, literal(-1)))
        CFI (cfiCond86) CFA_SP SP+0
        CFI (cfiCond86) CFA_XSP16 add(XSP16, 27)
        CFI Block cfiCond87 Using cfiCommon0
        CFI (cfiCond87) NoFunction
        CFI (cfiCond87) Conditional ??CrossCallReturnLabel_124, ??CrossCallReturnLabel_114
        CFI (cfiCond87) R6 load(1, XDATA, add(CFA_XSP16, literal(-10)))
        CFI (cfiCond87) VB load(1, XDATA, add(CFA_XSP16, literal(-9)))
        CFI (cfiCond87) V0 load(1, XDATA, add(CFA_XSP16, literal(-8)))
        CFI (cfiCond87) V1 load(1, XDATA, add(CFA_XSP16, literal(-7)))
        CFI (cfiCond87) R7 load(1, XDATA, add(CFA_XSP16, literal(-6)))
        CFI (cfiCond87) ?RET_LOW load(1, XDATA, add(CFA_XSP16, literal(-5)))
        CFI (cfiCond87) ?RET_HIGH load(1, XDATA, add(CFA_XSP16, literal(-4)))
        CFI (cfiCond87) ?BRET_EXT load(1, XDATA, add(CFA_XSP16, literal(-3)))
        CFI (cfiCond87) DPL0 load(1, XDATA, add(CFA_XSP16, literal(-2)))
        CFI (cfiCond87) DPH0 load(1, XDATA, add(CFA_XSP16, literal(-1)))
        CFI (cfiCond87) CFA_SP SP+0
        CFI (cfiCond87) CFA_XSP16 add(XSP16, 15)
        CFI Block cfiCond88 Using cfiCommon0
        CFI (cfiCond88) NoFunction
        CFI (cfiCond88) Conditional ??CrossCallReturnLabel_124, ??CrossCallReturnLabel_115
        CFI (cfiCond88) R6 load(1, XDATA, add(CFA_XSP16, literal(-12)))
        CFI (cfiCond88) VB load(1, XDATA, add(CFA_XSP16, literal(-11)))
        CFI (cfiCond88) V0 load(1, XDATA, add(CFA_XSP16, literal(-10)))
        CFI (cfiCond88) V1 load(1, XDATA, add(CFA_XSP16, literal(-9)))
        CFI (cfiCond88) V2 load(1, XDATA, add(CFA_XSP16, literal(-8)))
        CFI (cfiCond88) V3 load(1, XDATA, add(CFA_XSP16, literal(-7)))
        CFI (cfiCond88) R7 load(1, XDATA, add(CFA_XSP16, literal(-6)))
        CFI (cfiCond88) ?RET_LOW load(1, XDATA, add(CFA_XSP16, literal(-5)))
        CFI (cfiCond88) ?RET_HIGH load(1, XDATA, add(CFA_XSP16, literal(-4)))
        CFI (cfiCond88) ?BRET_EXT load(1, XDATA, add(CFA_XSP16, literal(-3)))
        CFI (cfiCond88) DPL0 load(1, XDATA, add(CFA_XSP16, literal(-2)))
        CFI (cfiCond88) DPH0 load(1, XDATA, add(CFA_XSP16, literal(-1)))
        CFI (cfiCond88) CFA_SP SP+0
        CFI (cfiCond88) CFA_XSP16 add(XSP16, 15)
        CFI Block cfiCond89 Using cfiCommon0
        CFI (cfiCond89) NoFunction
        CFI (cfiCond89) Conditional ??CrossCallReturnLabel_124, ??CrossCallReturnLabel_116
        CFI (cfiCond89) R6 load(1, XDATA, add(CFA_XSP16, literal(-12)))
        CFI (cfiCond89) VB load(1, XDATA, add(CFA_XSP16, literal(-11)))
        CFI (cfiCond89) V0 load(1, XDATA, add(CFA_XSP16, literal(-10)))
        CFI (cfiCond89) V1 load(1, XDATA, add(CFA_XSP16, literal(-9)))
        CFI (cfiCond89) V2 load(1, XDATA, add(CFA_XSP16, literal(-8)))
        CFI (cfiCond89) V3 load(1, XDATA, add(CFA_XSP16, literal(-7)))
        CFI (cfiCond89) R7 load(1, XDATA, add(CFA_XSP16, literal(-6)))
        CFI (cfiCond89) ?RET_LOW load(1, XDATA, add(CFA_XSP16, literal(-5)))
        CFI (cfiCond89) ?RET_HIGH load(1, XDATA, add(CFA_XSP16, literal(-4)))
        CFI (cfiCond89) ?BRET_EXT load(1, XDATA, add(CFA_XSP16, literal(-3)))
        CFI (cfiCond89) DPL0 load(1, XDATA, add(CFA_XSP16, literal(-2)))
        CFI (cfiCond89) DPH0 load(1, XDATA, add(CFA_XSP16, literal(-1)))
        CFI (cfiCond89) CFA_SP SP+0
        CFI (cfiCond89) CFA_XSP16 add(XSP16, 20)
        CFI Block cfiCond90 Using cfiCommon0
        CFI (cfiCond90) NoFunction
        CFI (cfiCond90) Conditional ??CrossCallReturnLabel_124, ??CrossCallReturnLabel_117
        CFI (cfiCond90) R6 load(1, XDATA, add(CFA_XSP16, literal(-10)))
        CFI (cfiCond90) VB load(1, XDATA, add(CFA_XSP16, literal(-9)))
        CFI (cfiCond90) V0 load(1, XDATA, add(CFA_XSP16, literal(-8)))
        CFI (cfiCond90) V1 load(1, XDATA, add(CFA_XSP16, literal(-7)))
        CFI (cfiCond90) R7 load(1, XDATA, add(CFA_XSP16, literal(-6)))
        CFI (cfiCond90) ?RET_LOW load(1, XDATA, add(CFA_XSP16, literal(-5)))
        CFI (cfiCond90) ?RET_HIGH load(1, XDATA, add(CFA_XSP16, literal(-4)))
        CFI (cfiCond90) ?BRET_EXT load(1, XDATA, add(CFA_XSP16, literal(-3)))
        CFI (cfiCond90) DPL0 load(1, XDATA, add(CFA_XSP16, literal(-2)))
        CFI (cfiCond90) DPH0 load(1, XDATA, add(CFA_XSP16, literal(-1)))
        CFI (cfiCond90) CFA_SP SP+0
        CFI (cfiCond90) CFA_XSP16 add(XSP16, 44)
        CFI Block cfiCond91 Using cfiCommon0
        CFI (cfiCond91) NoFunction
        CFI (cfiCond91) Conditional ??CrossCallReturnLabel_124, ??CrossCallReturnLabel_118
        CFI (cfiCond91) R6 load(1, XDATA, add(CFA_XSP16, literal(-10)))
        CFI (cfiCond91) VB load(1, XDATA, add(CFA_XSP16, literal(-9)))
        CFI (cfiCond91) V0 load(1, XDATA, add(CFA_XSP16, literal(-8)))
        CFI (cfiCond91) V1 load(1, XDATA, add(CFA_XSP16, literal(-7)))
        CFI (cfiCond91) R7 load(1, XDATA, add(CFA_XSP16, literal(-6)))
        CFI (cfiCond91) ?RET_LOW load(1, XDATA, add(CFA_XSP16, literal(-5)))
        CFI (cfiCond91) ?RET_HIGH load(1, XDATA, add(CFA_XSP16, literal(-4)))
        CFI (cfiCond91) ?BRET_EXT load(1, XDATA, add(CFA_XSP16, literal(-3)))
        CFI (cfiCond91) DPL0 load(1, XDATA, add(CFA_XSP16, literal(-2)))
        CFI (cfiCond91) DPH0 load(1, XDATA, add(CFA_XSP16, literal(-1)))
        CFI (cfiCond91) CFA_SP SP+0
        CFI (cfiCond91) CFA_XSP16 add(XSP16, 43)
        CFI Block cfiCond92 Using cfiCommon0
        CFI (cfiCond92) NoFunction
        CFI (cfiCond92) Conditional ??CrossCallReturnLabel_124, ??CrossCallReturnLabel_119
        CFI (cfiCond92) R6 load(1, XDATA, add(CFA_XSP16, literal(-10)))
        CFI (cfiCond92) VB load(1, XDATA, add(CFA_XSP16, literal(-9)))
        CFI (cfiCond92) V0 load(1, XDATA, add(CFA_XSP16, literal(-8)))
        CFI (cfiCond92) V1 load(1, XDATA, add(CFA_XSP16, literal(-7)))
        CFI (cfiCond92) R7 load(1, XDATA, add(CFA_XSP16, literal(-6)))
        CFI (cfiCond92) ?RET_LOW load(1, XDATA, add(CFA_XSP16, literal(-5)))
        CFI (cfiCond92) ?RET_HIGH load(1, XDATA, add(CFA_XSP16, literal(-4)))
        CFI (cfiCond92) ?BRET_EXT load(1, XDATA, add(CFA_XSP16, literal(-3)))
        CFI (cfiCond92) DPL0 load(1, XDATA, add(CFA_XSP16, literal(-2)))
        CFI (cfiCond92) DPH0 load(1, XDATA, add(CFA_XSP16, literal(-1)))
        CFI (cfiCond92) CFA_SP SP+0
        CFI (cfiCond92) CFA_XSP16 add(XSP16, 18)
        CFI Block cfiCond93 Using cfiCommon0
        CFI (cfiCond93) NoFunction
        CFI (cfiCond93) Conditional ??CrossCallReturnLabel_124, ??CrossCallReturnLabel_120
        CFI (cfiCond93) R6 load(1, XDATA, add(CFA_XSP16, literal(-10)))
        CFI (cfiCond93) VB load(1, XDATA, add(CFA_XSP16, literal(-9)))
        CFI (cfiCond93) V0 load(1, XDATA, add(CFA_XSP16, literal(-8)))
        CFI (cfiCond93) V1 load(1, XDATA, add(CFA_XSP16, literal(-7)))
        CFI (cfiCond93) R7 load(1, XDATA, add(CFA_XSP16, literal(-6)))
        CFI (cfiCond93) ?RET_LOW load(1, XDATA, add(CFA_XSP16, literal(-5)))
        CFI (cfiCond93) ?RET_HIGH load(1, XDATA, add(CFA_XSP16, literal(-4)))
        CFI (cfiCond93) ?BRET_EXT load(1, XDATA, add(CFA_XSP16, literal(-3)))
        CFI (cfiCond93) DPL0 load(1, XDATA, add(CFA_XSP16, literal(-2)))
        CFI (cfiCond93) DPH0 load(1, XDATA, add(CFA_XSP16, literal(-1)))
        CFI (cfiCond93) CFA_SP SP+0
        CFI (cfiCond93) CFA_XSP16 add(XSP16, 18)
        CFI Block cfiCond94 Using cfiCommon0
        CFI (cfiCond94) NoFunction
        CFI (cfiCond94) Conditional ??CrossCallReturnLabel_124, ??CrossCallReturnLabel_121
        CFI (cfiCond94) R6 load(1, XDATA, add(CFA_XSP16, literal(-10)))
        CFI (cfiCond94) VB load(1, XDATA, add(CFA_XSP16, literal(-9)))
        CFI (cfiCond94) V0 load(1, XDATA, add(CFA_XSP16, literal(-8)))
        CFI (cfiCond94) V1 load(1, XDATA, add(CFA_XSP16, literal(-7)))
        CFI (cfiCond94) R7 load(1, XDATA, add(CFA_XSP16, literal(-6)))
        CFI (cfiCond94) ?RET_LOW load(1, XDATA, add(CFA_XSP16, literal(-5)))
        CFI (cfiCond94) ?RET_HIGH load(1, XDATA, add(CFA_XSP16, literal(-4)))
        CFI (cfiCond94) ?BRET_EXT load(1, XDATA, add(CFA_XSP16, literal(-3)))
        CFI (cfiCond94) DPL0 load(1, XDATA, add(CFA_XSP16, literal(-2)))
        CFI (cfiCond94) DPH0 load(1, XDATA, add(CFA_XSP16, literal(-1)))
        CFI (cfiCond94) CFA_SP SP+0
        CFI (cfiCond94) CFA_XSP16 add(XSP16, 19)
        CFI Block cfiCond95 Using cfiCommon0
        CFI (cfiCond95) NoFunction
        CFI (cfiCond95) Conditional ??CrossCallReturnLabel_124, ??CrossCallReturnLabel_122
        CFI (cfiCond95) R6 load(1, XDATA, add(CFA_XSP16, literal(-10)))
        CFI (cfiCond95) VB load(1, XDATA, add(CFA_XSP16, literal(-9)))
        CFI (cfiCond95) V0 load(1, XDATA, add(CFA_XSP16, literal(-8)))
        CFI (cfiCond95) V1 load(1, XDATA, add(CFA_XSP16, literal(-7)))
        CFI (cfiCond95) R7 load(1, XDATA, add(CFA_XSP16, literal(-6)))
        CFI (cfiCond95) ?RET_LOW load(1, XDATA, add(CFA_XSP16, literal(-5)))
        CFI (cfiCond95) ?RET_HIGH load(1, XDATA, add(CFA_XSP16, literal(-4)))
        CFI (cfiCond95) ?BRET_EXT load(1, XDATA, add(CFA_XSP16, literal(-3)))
        CFI (cfiCond95) DPL0 load(1, XDATA, add(CFA_XSP16, literal(-2)))
        CFI (cfiCond95) DPH0 load(1, XDATA, add(CFA_XSP16, literal(-1)))
        CFI (cfiCond95) CFA_SP SP+0
        CFI (cfiCond95) CFA_XSP16 add(XSP16, 19)
        CFI Block cfiPicker96 Using cfiCommon1
        CFI (cfiPicker96) NoFunction
        CFI (cfiPicker96) Picker
        MOV     DPTR,#rbuf
        MOVX    A,@DPTR
        MOV     R2,A
        INC     DPTR
        MOVX    A,@DPTR
        MOV     R3,A
        LCALL   ??osal_mem_free?relay
        RET
        CFI EndBlock cfiCond84
        CFI EndBlock cfiCond85
        CFI EndBlock cfiCond86
        CFI EndBlock cfiCond87
        CFI EndBlock cfiCond88
        CFI EndBlock cfiCond89
        CFI EndBlock cfiCond90
        CFI EndBlock cfiCond91
        CFI EndBlock cfiCond92
        CFI EndBlock cfiCond93
        CFI EndBlock cfiCond94
        CFI EndBlock cfiCond95
        CFI EndBlock cfiPicker96

        RSEG BANKED_CODE:CODE:NOROOT(0)
?Subroutine11:
        CFI Block cfiCond97 Using cfiCommon0
        CFI NoFunction
        CFI Conditional ??CrossCallReturnLabel_19
        CFI R6 load(1, XDATA, add(CFA_XSP16, literal(-10)))
        CFI VB load(1, XDATA, add(CFA_XSP16, literal(-9)))
        CFI V0 load(1, XDATA, add(CFA_XSP16, literal(-8)))
        CFI V1 load(1, XDATA, add(CFA_XSP16, literal(-7)))
        CFI R7 load(1, XDATA, add(CFA_XSP16, literal(-6)))
        CFI ?RET_LOW load(1, XDATA, add(CFA_XSP16, literal(-5)))
        CFI ?RET_HIGH load(1, XDATA, add(CFA_XSP16, literal(-4)))
        CFI ?BRET_EXT load(1, XDATA, add(CFA_XSP16, literal(-3)))
        CFI DPL0 load(1, XDATA, add(CFA_XSP16, literal(-2)))
        CFI DPH0 load(1, XDATA, add(CFA_XSP16, literal(-1)))
        CFI CFA_SP SP+0
        CFI CFA_XSP16 add(XSP16, 10)
        CFI Block cfiCond98 Using cfiCommon0
        CFI (cfiCond98) NoFunction
        CFI (cfiCond98) Conditional ??CrossCallReturnLabel_20
        CFI (cfiCond98) R6 load(1, XDATA, add(CFA_XSP16, literal(-10)))
        CFI (cfiCond98) VB load(1, XDATA, add(CFA_XSP16, literal(-9)))
        CFI (cfiCond98) V0 load(1, XDATA, add(CFA_XSP16, literal(-8)))
        CFI (cfiCond98) V1 load(1, XDATA, add(CFA_XSP16, literal(-7)))
        CFI (cfiCond98) R7 load(1, XDATA, add(CFA_XSP16, literal(-6)))
        CFI (cfiCond98) ?RET_LOW load(1, XDATA, add(CFA_XSP16, literal(-5)))
        CFI (cfiCond98) ?RET_HIGH load(1, XDATA, add(CFA_XSP16, literal(-4)))
        CFI (cfiCond98) ?BRET_EXT load(1, XDATA, add(CFA_XSP16, literal(-3)))
        CFI (cfiCond98) DPL0 load(1, XDATA, add(CFA_XSP16, literal(-2)))
        CFI (cfiCond98) DPH0 load(1, XDATA, add(CFA_XSP16, literal(-1)))
        CFI (cfiCond98) CFA_SP SP+0
        CFI (cfiCond98) CFA_XSP16 add(XSP16, 10)
        CFI Block cfiPicker99 Using cfiCommon1
        CFI (cfiPicker99) NoFunction
        CFI (cfiPicker99) Picker
        LCALL   ?Subroutine36 & 0xFFFF
??CrossCallReturnLabel_134:
        RET
        CFI EndBlock cfiCond97
        CFI EndBlock cfiCond98
        CFI EndBlock cfiPicker99

        RSEG BANKED_CODE:CODE:NOROOT(0)
?Subroutine36:
        CFI Block cfiCond100 Using cfiCommon0
        CFI NoFunction
        CFI Conditional ??CrossCallReturnLabel_134, ??CrossCallReturnLabel_19
        CFI R6 load(1, XDATA, add(CFA_XSP16, literal(-10)))
        CFI VB load(1, XDATA, add(CFA_XSP16, literal(-9)))
        CFI V0 load(1, XDATA, add(CFA_XSP16, literal(-8)))
        CFI V1 load(1, XDATA, add(CFA_XSP16, literal(-7)))
        CFI R7 load(1, XDATA, add(CFA_XSP16, literal(-6)))
        CFI ?RET_LOW load(1, XDATA, add(CFA_XSP16, literal(-5)))
        CFI ?RET_HIGH load(1, XDATA, add(CFA_XSP16, literal(-4)))
        CFI ?BRET_EXT load(1, XDATA, add(CFA_XSP16, literal(-3)))
        CFI DPL0 load(1, XDATA, add(CFA_XSP16, literal(-2)))
        CFI DPH0 load(1, XDATA, add(CFA_XSP16, literal(-1)))
        CFI CFA_SP SP+0
        CFI CFA_XSP16 add(XSP16, 10)
        CFI Block cfiCond101 Using cfiCommon0
        CFI (cfiCond101) NoFunction
        CFI (cfiCond101) Conditional ??CrossCallReturnLabel_134, ??CrossCallReturnLabel_20
        CFI (cfiCond101) R6 load(1, XDATA, add(CFA_XSP16, literal(-10)))
        CFI (cfiCond101) VB load(1, XDATA, add(CFA_XSP16, literal(-9)))
        CFI (cfiCond101) V0 load(1, XDATA, add(CFA_XSP16, literal(-8)))
        CFI (cfiCond101) V1 load(1, XDATA, add(CFA_XSP16, literal(-7)))
        CFI (cfiCond101) R7 load(1, XDATA, add(CFA_XSP16, literal(-6)))
        CFI (cfiCond101) ?RET_LOW load(1, XDATA, add(CFA_XSP16, literal(-5)))
        CFI (cfiCond101) ?RET_HIGH load(1, XDATA, add(CFA_XSP16, literal(-4)))
        CFI (cfiCond101) ?BRET_EXT load(1, XDATA, add(CFA_XSP16, literal(-3)))
        CFI (cfiCond101) DPL0 load(1, XDATA, add(CFA_XSP16, literal(-2)))
        CFI (cfiCond101) DPH0 load(1, XDATA, add(CFA_XSP16, literal(-1)))
        CFI (cfiCond101) CFA_SP SP+0
        CFI (cfiCond101) CFA_XSP16 add(XSP16, 10)
        CFI Block cfiCond102 Using cfiCommon0
        CFI (cfiCond102) NoFunction
        CFI (cfiCond102) Conditional ??CrossCallReturnLabel_135, ??CrossCallReturnLabel_9
        CFI (cfiCond102) R6 load(1, XDATA, add(CFA_XSP16, literal(-10)))
        CFI (cfiCond102) VB load(1, XDATA, add(CFA_XSP16, literal(-9)))
        CFI (cfiCond102) V0 load(1, XDATA, add(CFA_XSP16, literal(-8)))
        CFI (cfiCond102) V1 load(1, XDATA, add(CFA_XSP16, literal(-7)))
        CFI (cfiCond102) R7 load(1, XDATA, add(CFA_XSP16, literal(-6)))
        CFI (cfiCond102) ?RET_LOW load(1, XDATA, add(CFA_XSP16, literal(-5)))
        CFI (cfiCond102) ?RET_HIGH load(1, XDATA, add(CFA_XSP16, literal(-4)))
        CFI (cfiCond102) ?BRET_EXT load(1, XDATA, add(CFA_XSP16, literal(-3)))
        CFI (cfiCond102) DPL0 load(1, XDATA, add(CFA_XSP16, literal(-2)))
        CFI (cfiCond102) DPH0 load(1, XDATA, add(CFA_XSP16, literal(-1)))
        CFI (cfiCond102) CFA_SP SP+0
        CFI (cfiCond102) CFA_XSP16 add(XSP16, 14)
        CFI Block cfiCond103 Using cfiCommon0
        CFI (cfiCond103) NoFunction
        CFI (cfiCond103) Conditional ??CrossCallReturnLabel_135, ??CrossCallReturnLabel_10
        CFI (cfiCond103) R6 load(1, XDATA, add(CFA_XSP16, literal(-10)))
        CFI (cfiCond103) VB load(1, XDATA, add(CFA_XSP16, literal(-9)))
        CFI (cfiCond103) V0 load(1, XDATA, add(CFA_XSP16, literal(-8)))
        CFI (cfiCond103) V1 load(1, XDATA, add(CFA_XSP16, literal(-7)))
        CFI (cfiCond103) R7 load(1, XDATA, add(CFA_XSP16, literal(-6)))
        CFI (cfiCond103) ?RET_LOW load(1, XDATA, add(CFA_XSP16, literal(-5)))
        CFI (cfiCond103) ?RET_HIGH load(1, XDATA, add(CFA_XSP16, literal(-4)))
        CFI (cfiCond103) ?BRET_EXT load(1, XDATA, add(CFA_XSP16, literal(-3)))
        CFI (cfiCond103) DPL0 load(1, XDATA, add(CFA_XSP16, literal(-2)))
        CFI (cfiCond103) DPH0 load(1, XDATA, add(CFA_XSP16, literal(-1)))
        CFI (cfiCond103) CFA_SP SP+0
        CFI (cfiCond103) CFA_XSP16 add(XSP16, 35)
        CFI Block cfiCond104 Using cfiCommon0
        CFI (cfiCond104) NoFunction
        CFI (cfiCond104) Conditional ??CrossCallReturnLabel_136, ??CrossCallReturnLabel_137
        CFI (cfiCond104) R6 load(1, XDATA, add(CFA_XSP16, literal(-10)))
        CFI (cfiCond104) VB load(1, XDATA, add(CFA_XSP16, literal(-9)))
        CFI (cfiCond104) V0 load(1, XDATA, add(CFA_XSP16, literal(-8)))
        CFI (cfiCond104) V1 load(1, XDATA, add(CFA_XSP16, literal(-7)))
        CFI (cfiCond104) R7 load(1, XDATA, add(CFA_XSP16, literal(-6)))
        CFI (cfiCond104) ?RET_LOW load(1, XDATA, add(CFA_XSP16, literal(-5)))
        CFI (cfiCond104) ?RET_HIGH load(1, XDATA, add(CFA_XSP16, literal(-4)))
        CFI (cfiCond104) ?BRET_EXT load(1, XDATA, add(CFA_XSP16, literal(-3)))
        CFI (cfiCond104) DPL0 load(1, XDATA, add(CFA_XSP16, literal(-2)))
        CFI (cfiCond104) DPH0 load(1, XDATA, add(CFA_XSP16, literal(-1)))
        CFI (cfiCond104) CFA_SP SP+0
        CFI (cfiCond104) CFA_XSP16 add(XSP16, 12)
        CFI Block cfiCond105 Using cfiCommon0
        CFI (cfiCond105) NoFunction
        CFI (cfiCond105) Conditional ??CrossCallReturnLabel_136, ??CrossCallReturnLabel_138
        CFI (cfiCond105) R6 load(1, XDATA, add(CFA_XSP16, literal(-10)))
        CFI (cfiCond105) VB load(1, XDATA, add(CFA_XSP16, literal(-9)))
        CFI (cfiCond105) V0 load(1, XDATA, add(CFA_XSP16, literal(-8)))
        CFI (cfiCond105) V1 load(1, XDATA, add(CFA_XSP16, literal(-7)))
        CFI (cfiCond105) R7 load(1, XDATA, add(CFA_XSP16, literal(-6)))
        CFI (cfiCond105) ?RET_LOW load(1, XDATA, add(CFA_XSP16, literal(-5)))
        CFI (cfiCond105) ?RET_HIGH load(1, XDATA, add(CFA_XSP16, literal(-4)))
        CFI (cfiCond105) ?BRET_EXT load(1, XDATA, add(CFA_XSP16, literal(-3)))
        CFI (cfiCond105) DPL0 load(1, XDATA, add(CFA_XSP16, literal(-2)))
        CFI (cfiCond105) DPH0 load(1, XDATA, add(CFA_XSP16, literal(-1)))
        CFI (cfiCond105) CFA_SP SP+0
        CFI (cfiCond105) CFA_XSP16 add(XSP16, 12)
        CFI Block cfiCond106 Using cfiCommon0
        CFI (cfiCond106) NoFunction
        CFI (cfiCond106) Conditional ??CrossCallReturnLabel_136, ??CrossCallReturnLabel_139
        CFI (cfiCond106) R6 load(1, XDATA, add(CFA_XSP16, literal(-10)))
        CFI (cfiCond106) VB load(1, XDATA, add(CFA_XSP16, literal(-9)))
        CFI (cfiCond106) V0 load(1, XDATA, add(CFA_XSP16, literal(-8)))
        CFI (cfiCond106) V1 load(1, XDATA, add(CFA_XSP16, literal(-7)))
        CFI (cfiCond106) R7 load(1, XDATA, add(CFA_XSP16, literal(-6)))
        CFI (cfiCond106) ?RET_LOW load(1, XDATA, add(CFA_XSP16, literal(-5)))
        CFI (cfiCond106) ?RET_HIGH load(1, XDATA, add(CFA_XSP16, literal(-4)))
        CFI (cfiCond106) ?BRET_EXT load(1, XDATA, add(CFA_XSP16, literal(-3)))
        CFI (cfiCond106) DPL0 load(1, XDATA, add(CFA_XSP16, literal(-2)))
        CFI (cfiCond106) DPH0 load(1, XDATA, add(CFA_XSP16, literal(-1)))
        CFI (cfiCond106) CFA_SP SP+0
        CFI (cfiCond106) CFA_XSP16 add(XSP16, 11)
        CFI Block cfiCond107 Using cfiCommon0
        CFI (cfiCond107) NoFunction
        CFI (cfiCond107) Conditional ??CrossCallReturnLabel_136, ??CrossCallReturnLabel_140
        CFI (cfiCond107) R6 load(1, XDATA, add(CFA_XSP16, literal(-10)))
        CFI (cfiCond107) VB load(1, XDATA, add(CFA_XSP16, literal(-9)))
        CFI (cfiCond107) V0 load(1, XDATA, add(CFA_XSP16, literal(-8)))
        CFI (cfiCond107) V1 load(1, XDATA, add(CFA_XSP16, literal(-7)))
        CFI (cfiCond107) R7 load(1, XDATA, add(CFA_XSP16, literal(-6)))
        CFI (cfiCond107) ?RET_LOW load(1, XDATA, add(CFA_XSP16, literal(-5)))
        CFI (cfiCond107) ?RET_HIGH load(1, XDATA, add(CFA_XSP16, literal(-4)))
        CFI (cfiCond107) ?BRET_EXT load(1, XDATA, add(CFA_XSP16, literal(-3)))
        CFI (cfiCond107) DPL0 load(1, XDATA, add(CFA_XSP16, literal(-2)))
        CFI (cfiCond107) DPH0 load(1, XDATA, add(CFA_XSP16, literal(-1)))
        CFI (cfiCond107) CFA_SP SP+0
        CFI (cfiCond107) CFA_XSP16 add(XSP16, 11)
        CFI Block cfiPicker108 Using cfiCommon1
        CFI (cfiPicker108) NoFunction
        CFI (cfiPicker108) Picker
        MOV     DPTR,#(SampleApp_SPI_SendData_DstAddr + 8)
        MOVX    @DPTR,A
        MOV     A,#0x14
        MOV     DPTR,#(SampleApp_SPI_SendData_DstAddr + 9)
        MOVX    @DPTR,A
        MOV     DPTR,#SampleApp_SPI_SendData_DstAddr
        RET
        CFI EndBlock cfiCond100
        CFI EndBlock cfiCond101
        CFI EndBlock cfiCond102
        CFI EndBlock cfiCond103
        CFI EndBlock cfiCond104
        CFI EndBlock cfiCond105
        CFI EndBlock cfiCond106
        CFI EndBlock cfiCond107
        CFI EndBlock cfiPicker108

        RSEG BANKED_CODE:CODE:NOROOT(0)
ReadID:
        CFI Block cfiBlock109 Using cfiCommon0
        CFI Function ReadID
        FUNCALL ReadID, HalUARTWrite
        LOCFRAME ISTACK, 0, STACK
        LOCFRAME PSTACK, 0, STACK
        LOCFRAME XSTACK, 15, STACK
        LOCFRAME IOVERLAY, 0, STATIC
        LOCFRAME DOVERLAY, 0, STATIC
        ARGFRAME ISTACK, 0, STACK
        ARGFRAME PSTACK, 0, STACK
        ARGFRAME XSTACK, 15, STACK
        ARGFRAME IOVERLAY, 0, STATIC
        ARGFRAME DOVERLAY, 0, STATIC
        FUNCALL ReadID, osal_mem_free
        LOCFRAME ISTACK, 0, STACK
        LOCFRAME PSTACK, 0, STACK
